
/home/lin/ysyx_2022/ysyx-workbench/am-kernels/benchmarks/dhrystone/build/dhrystone-riscv64-nemu.elf:     file format elf64-littleriscv


Disassembly of section .text:

0000000080000000 <_start>:
    80000000:	00000413          	li	s0,0
    80000004:	0000d117          	auipc	sp,0xd
    80000008:	ffc10113          	addi	sp,sp,-4 # 8000d000 <_end>
    8000000c:	629000ef          	jal	ra,80000e34 <_trm_init>

0000000080000010 <Proc_6>:
    80000010:	00200713          	li	a4,2
    80000014:	04e50263          	beq	a0,a4,80000058 <Proc_6+0x48>
    80000018:	00300793          	li	a5,3
    8000001c:	00f5a023          	sw	a5,0(a1)
    80000020:	00100793          	li	a5,1
    80000024:	00f50c63          	beq	a0,a5,8000003c <Proc_6+0x2c>
    80000028:	02a7f263          	bgeu	a5,a0,8000004c <Proc_6+0x3c>
    8000002c:	00400793          	li	a5,4
    80000030:	02f51263          	bne	a0,a5,80000054 <Proc_6+0x44>
    80000034:	00e5a023          	sw	a4,0(a1)
    80000038:	00008067          	ret
    8000003c:	00005717          	auipc	a4,0x5
    80000040:	97c72703          	lw	a4,-1668(a4) # 800049b8 <Int_Glob>
    80000044:	06400793          	li	a5,100
    80000048:	fee7d8e3          	bge	a5,a4,80000038 <Proc_6+0x28>
    8000004c:	0005a023          	sw	zero,0(a1)
    80000050:	00008067          	ret
    80000054:	00008067          	ret
    80000058:	00100793          	li	a5,1
    8000005c:	00f5a023          	sw	a5,0(a1)
    80000060:	00008067          	ret

0000000080000064 <Proc_1>:
    80000064:	00005717          	auipc	a4,0x5
    80000068:	96470713          	addi	a4,a4,-1692 # 800049c8 <Ptr_Glob>
    8000006c:	00073783          	ld	a5,0(a4)
    80000070:	fe010113          	addi	sp,sp,-32
    80000074:	00813823          	sd	s0,16(sp)
    80000078:	0007b603          	ld	a2,0(a5)
    8000007c:	00053403          	ld	s0,0(a0)
    80000080:	0307b683          	ld	a3,48(a5)
    80000084:	0087be03          	ld	t3,8(a5)
    80000088:	0107b303          	ld	t1,16(a5)
    8000008c:	0187b883          	ld	a7,24(a5)
    80000090:	0207b803          	ld	a6,32(a5)
    80000094:	0287b583          	ld	a1,40(a5)
    80000098:	00913423          	sd	s1,8(sp)
    8000009c:	00113c23          	sd	ra,24(sp)
    800000a0:	00c43023          	sd	a2,0(s0)
    800000a4:	00053603          	ld	a2,0(a0)
    800000a8:	01c43423          	sd	t3,8(s0)
    800000ac:	00643823          	sd	t1,16(s0)
    800000b0:	02d43823          	sd	a3,48(s0)
    800000b4:	01143c23          	sd	a7,24(s0)
    800000b8:	03043023          	sd	a6,32(s0)
    800000bc:	02b43423          	sd	a1,40(s0)
    800000c0:	00500693          	li	a3,5
    800000c4:	00d52823          	sw	a3,16(a0)
    800000c8:	00c43023          	sd	a2,0(s0)
    800000cc:	0007b483          	ld	s1,0(a5)
    800000d0:	00005797          	auipc	a5,0x5
    800000d4:	8e87a783          	lw	a5,-1816(a5) # 800049b8 <Int_Glob>
    800000d8:	00c7879b          	addiw	a5,a5,12
    800000dc:	00943023          	sd	s1,0(s0)
    800000e0:	00073703          	ld	a4,0(a4)
    800000e4:	00d42823          	sw	a3,16(s0)
    800000e8:	00f72823          	sw	a5,16(a4)
    800000ec:	00842783          	lw	a5,8(s0)
    800000f0:	04078a63          	beqz	a5,80000144 <Proc_1+0xe0>
    800000f4:	00053783          	ld	a5,0(a0)
    800000f8:	01813083          	ld	ra,24(sp)
    800000fc:	01013403          	ld	s0,16(sp)
    80000100:	0007b883          	ld	a7,0(a5)
    80000104:	0087b803          	ld	a6,8(a5)
    80000108:	0107b583          	ld	a1,16(a5)
    8000010c:	0187b603          	ld	a2,24(a5)
    80000110:	0207b683          	ld	a3,32(a5)
    80000114:	0287b703          	ld	a4,40(a5)
    80000118:	0307b783          	ld	a5,48(a5)
    8000011c:	01153023          	sd	a7,0(a0)
    80000120:	01053423          	sd	a6,8(a0)
    80000124:	00b53823          	sd	a1,16(a0)
    80000128:	00c53c23          	sd	a2,24(a0)
    8000012c:	02d53023          	sd	a3,32(a0)
    80000130:	02e53423          	sd	a4,40(a0)
    80000134:	02f53823          	sd	a5,48(a0)
    80000138:	00813483          	ld	s1,8(sp)
    8000013c:	02010113          	addi	sp,sp,32
    80000140:	00008067          	ret
    80000144:	00c52503          	lw	a0,12(a0)
    80000148:	00600793          	li	a5,6
    8000014c:	00f42823          	sw	a5,16(s0)
    80000150:	00c40593          	addi	a1,s0,12
    80000154:	ebdff0ef          	jal	ra,80000010 <Proc_6>
    80000158:	01200793          	li	a5,18
    8000015c:	00943023          	sd	s1,0(s0)
    80000160:	01813083          	ld	ra,24(sp)
    80000164:	00f42823          	sw	a5,16(s0)
    80000168:	01013403          	ld	s0,16(sp)
    8000016c:	00813483          	ld	s1,8(sp)
    80000170:	02010113          	addi	sp,sp,32
    80000174:	00008067          	ret

0000000080000178 <main>:
    80000178:	f2010113          	addi	sp,sp,-224
    8000017c:	09713c23          	sd	s7,152(sp)
    80000180:	0c113c23          	sd	ra,216(sp)
    80000184:	0c813823          	sd	s0,208(sp)
    80000188:	0c913423          	sd	s1,200(sp)
    8000018c:	0d213023          	sd	s2,192(sp)
    80000190:	0b313c23          	sd	s3,184(sp)
    80000194:	0b413823          	sd	s4,176(sp)
    80000198:	0b513423          	sd	s5,168(sp)
    8000019c:	0b613023          	sd	s6,160(sp)
    800001a0:	09813823          	sd	s8,144(sp)
    800001a4:	09913423          	sd	s9,136(sp)
    800001a8:	09a13023          	sd	s10,128(sp)
    800001ac:	07b13c23          	sd	s11,120(sp)
    800001b0:	1e5000ef          	jal	ra,80000b94 <ioe_init>
    800001b4:	00001697          	auipc	a3,0x1
    800001b8:	7fc68693          	addi	a3,a3,2044 # 800019b0 <free_mem>
    800001bc:	0006b783          	ld	a5,0(a3)
    800001c0:	00000b93          	li	s7,0
    800001c4:	0037f713          	andi	a4,a5,3
    800001c8:	00070c63          	beqz	a4,800001e0 <main+0x68>
    800001cc:	00178713          	addi	a4,a5,1
    800001d0:	00377613          	andi	a2,a4,3
    800001d4:	00070793          	mv	a5,a4
    800001d8:	00170713          	addi	a4,a4,1
    800001dc:	fe061ae3          	bnez	a2,800001d0 <main+0x58>
    800001e0:	00004717          	auipc	a4,0x4
    800001e4:	7e070713          	addi	a4,a4,2016 # 800049c0 <Next_Ptr_Glob>
    800001e8:	00f73023          	sd	a5,0(a4)
    800001ec:	0037f713          	andi	a4,a5,3
    800001f0:	03878513          	addi	a0,a5,56
    800001f4:	00070c63          	beqz	a4,8000020c <main+0x94>
    800001f8:	03978713          	addi	a4,a5,57
    800001fc:	00377613          	andi	a2,a4,3
    80000200:	00070513          	mv	a0,a4
    80000204:	00170713          	addi	a4,a4,1
    80000208:	fe061ae3          	bnez	a2,800001fc <main+0x84>
    8000020c:	00004c97          	auipc	s9,0x4
    80000210:	7bcc8c93          	addi	s9,s9,1980 # 800049c8 <Ptr_Glob>
    80000214:	00acb023          	sd	a0,0(s9)
    80000218:	00f53023          	sd	a5,0(a0)
    8000021c:	00100793          	li	a5,1
    80000220:	02179793          	slli	a5,a5,0x21
    80000224:	00f53423          	sd	a5,8(a0)
    80000228:	02800793          	li	a5,40
    8000022c:	03850713          	addi	a4,a0,56
    80000230:	00f52823          	sw	a5,16(a0)
    80000234:	00001597          	auipc	a1,0x1
    80000238:	11c58593          	addi	a1,a1,284 # 80001350 <_etext+0x14>
    8000023c:	01450513          	addi	a0,a0,20
    80000240:	00e6b023          	sd	a4,0(a3)
    80000244:	044010ef          	jal	ra,80001288 <strcpy>
    80000248:	00001597          	auipc	a1,0x1
    8000024c:	12858593          	addi	a1,a1,296 # 80001370 <_etext+0x34>
    80000250:	03010513          	addi	a0,sp,48
    80000254:	034010ef          	jal	ra,80001288 <strcpy>
    80000258:	00a00793          	li	a5,10
    8000025c:	00002417          	auipc	s0,0x2
    80000260:	c2c40413          	addi	s0,s0,-980 # 80001e88 <Arr_2_Glob>
    80000264:	00001597          	auipc	a1,0x1
    80000268:	12c58593          	addi	a1,a1,300 # 80001390 <_etext+0x54>
    8000026c:	64f42e23          	sw	a5,1628(s0)
    80000270:	00001517          	auipc	a0,0x1
    80000274:	13050513          	addi	a0,a0,304 # 800013a0 <_etext+0x64>
    80000278:	749000ef          	jal	ra,800011c0 <printf>
    8000027c:	0007a7b7          	lui	a5,0x7a
    80000280:	12078593          	addi	a1,a5,288 # 7a120 <_entry_offset+0x7a120>
    80000284:	00001517          	auipc	a0,0x1
    80000288:	14450513          	addi	a0,a0,324 # 800013c8 <_etext+0x8c>
    8000028c:	00004797          	auipc	a5,0x4
    80000290:	7007ae23          	sw	zero,1820(a5) # 800049a8 <Done>
    80000294:	72d000ef          	jal	ra,800011c0 <printf>
    80000298:	05010593          	addi	a1,sp,80
    8000029c:	00600513          	li	a0,6
    800002a0:	151000ef          	jal	ra,80000bf0 <ioe_read>
    800002a4:	05013783          	ld	a5,80(sp)
    800002a8:	3e800713          	li	a4,1000
    800002ac:	00700d93          	li	s11,7
    800002b0:	02e7d7b3          	divu	a5,a5,a4
    800002b4:	00800d13          	li	s10,8
    800002b8:	020d9693          	slli	a3,s11,0x20
    800002bc:	020d1713          	slli	a4,s10,0x20
    800002c0:	00768693          	addi	a3,a3,7
    800002c4:	00d13023          	sd	a3,0(sp)
    800002c8:	00870693          	addi	a3,a4,8
    800002cc:	0007a737          	lui	a4,0x7a
    800002d0:	12170713          	addi	a4,a4,289 # 7a121 <_entry_offset+0x7a121>
    800002d4:	00e13c23          	sd	a4,24(sp)
    800002d8:	00004717          	auipc	a4,0x4
    800002dc:	6c070713          	addi	a4,a4,1728 # 80004998 <Begin_Time>
    800002e0:	00100c13          	li	s8,1
    800002e4:	00004997          	auipc	s3,0x4
    800002e8:	6c098993          	addi	s3,s3,1728 # 800049a4 <Ch_1_Glob>
    800002ec:	00004b17          	auipc	s6,0x4
    800002f0:	6b4b0b13          	addi	s6,s6,1716 # 800049a0 <Bool_Glob>
    800002f4:	00004497          	auipc	s1,0x4
    800002f8:	6b148493          	addi	s1,s1,1713 # 800049a5 <Ch_2_Glob>
    800002fc:	00002917          	auipc	s2,0x2
    80000300:	ac490913          	addi	s2,s2,-1340 # 80001dc0 <Arr_1_Glob>
    80000304:	00004a97          	auipc	s5,0x4
    80000308:	6b4a8a93          	addi	s5,s5,1716 # 800049b8 <Int_Glob>
    8000030c:	00d13423          	sd	a3,8(sp)
    80000310:	00001a17          	auipc	s4,0x1
    80000314:	100a0a13          	addi	s4,s4,256 # 80001410 <_etext+0xd4>
    80000318:	02079793          	slli	a5,a5,0x20
    8000031c:	0207d793          	srli	a5,a5,0x20
    80000320:	00f73023          	sd	a5,0(a4)
    80000324:	04100793          	li	a5,65
    80000328:	00f98023          	sb	a5,0(s3)
    8000032c:	00100793          	li	a5,1
    80000330:	00fb2023          	sw	a5,0(s6)
    80000334:	00001597          	auipc	a1,0x1
    80000338:	0bc58593          	addi	a1,a1,188 # 800013f0 <_etext+0xb4>
    8000033c:	04200793          	li	a5,66
    80000340:	05010513          	addi	a0,sp,80
    80000344:	00f48023          	sb	a5,0(s1)
    80000348:	741000ef          	jal	ra,80001288 <strcpy>
    8000034c:	03214783          	lbu	a5,50(sp)
    80000350:	05314703          	lbu	a4,83(sp)
    80000354:	00000693          	li	a3,0
    80000358:	78e78863          	beq	a5,a4,80000ae8 <main+0x970>
    8000035c:	00068463          	beqz	a3,80000364 <main+0x1ec>
    80000360:	01798023          	sb	s7,0(s3)
    80000364:	05010593          	addi	a1,sp,80
    80000368:	03010513          	addi	a0,sp,48
    8000036c:	751000ef          	jal	ra,800012bc <strcmp>
    80000370:	00050713          	mv	a4,a0
    80000374:	00172713          	slti	a4,a4,1
    80000378:	00eb2023          	sw	a4,0(s6)
    8000037c:	00013703          	ld	a4,0(sp)
    80000380:	65c42783          	lw	a5,1628(s0)
    80000384:	000cb503          	ld	a0,0(s9)
    80000388:	02e93023          	sd	a4,32(s2)
    8000038c:	00813703          	ld	a4,8(sp)
    80000390:	0017879b          	addiw	a5,a5,1
    80000394:	64f42e23          	sw	a5,1628(s0)
    80000398:	00003797          	auipc	a5,0x3
    8000039c:	af078793          	addi	a5,a5,-1296 # 80002e88 <Arr_2_Glob+0x1000>
    800003a0:	66e43023          	sd	a4,1632(s0)
    800003a4:	61b7a023          	sw	s11,1536(a5)
    800003a8:	00500793          	li	a5,5
    800003ac:	00faa023          	sw	a5,0(s5)
    800003b0:	09a92c23          	sw	s10,152(s2)
    800003b4:	cb1ff0ef          	jal	ra,80000064 <Proc_1>
    800003b8:	0004c583          	lbu	a1,0(s1)
    800003bc:	04000713          	li	a4,64
    800003c0:	04100793          	li	a5,65
    800003c4:	00100693          	li	a3,1
    800003c8:	00300813          	li	a6,3
    800003cc:	04300613          	li	a2,67
    800003d0:	72b77263          	bgeu	a4,a1,80000af4 <main+0x97c>
    800003d4:	0004c703          	lbu	a4,0(s1)
    800003d8:	0017879b          	addiw	a5,a5,1
    800003dc:	0ff7f793          	zext.b	a5,a5
    800003e0:	000a0593          	mv	a1,s4
    800003e4:	05010513          	addi	a0,sp,80
    800003e8:	04f76263          	bltu	a4,a5,8000042c <main+0x2b4>
    800003ec:	00000713          	li	a4,0
    800003f0:	6ec78663          	beq	a5,a2,80000adc <main+0x964>
    800003f4:	fee690e3          	bne	a3,a4,800003d4 <main+0x25c>
    800003f8:	00f13823          	sd	a5,16(sp)
    800003fc:	68d000ef          	jal	ra,80001288 <strcpy>
    80000400:	01013783          	ld	a5,16(sp)
    80000404:	0004c703          	lbu	a4,0(s1)
    80000408:	018aa023          	sw	s8,0(s5)
    8000040c:	0017879b          	addiw	a5,a5,1
    80000410:	0ff7f793          	zext.b	a5,a5
    80000414:	00000693          	li	a3,0
    80000418:	000c0813          	mv	a6,s8
    8000041c:	04300613          	li	a2,67
    80000420:	000a0593          	mv	a1,s4
    80000424:	05010513          	addi	a0,sp,80
    80000428:	fcf772e3          	bgeu	a4,a5,800003ec <main+0x274>
    8000042c:	0018179b          	slliw	a5,a6,0x1
    80000430:	010787bb          	addw	a5,a5,a6
    80000434:	00700713          	li	a4,7
    80000438:	02e7c73b          	divw	a4,a5,a4
    8000043c:	ff97879b          	addiw	a5,a5,-7
    80000440:	0037961b          	slliw	a2,a5,0x3
    80000444:	40f607bb          	subw	a5,a2,a5
    80000448:	40e787bb          	subw	a5,a5,a4
    8000044c:	0007061b          	sext.w	a2,a4
    80000450:	0009c703          	lbu	a4,0(s3)
    80000454:	04100593          	li	a1,65
    80000458:	00b71863          	bne	a4,a1,80000468 <main+0x2f0>
    8000045c:	000aa703          	lw	a4,0(s5)
    80000460:	0096061b          	addiw	a2,a2,9
    80000464:	40e6063b          	subw	a2,a2,a4
    80000468:	01813703          	ld	a4,24(sp)
    8000046c:	001c0c1b          	addiw	s8,s8,1
    80000470:	eaec1ae3          	bne	s8,a4,80000324 <main+0x1ac>
    80000474:	02810593          	addi	a1,sp,40
    80000478:	00600513          	li	a0,6
    8000047c:	00d13823          	sd	a3,16(sp)
    80000480:	00c13423          	sd	a2,8(sp)
    80000484:	00f13023          	sd	a5,0(sp)
    80000488:	768000ef          	jal	ra,80000bf0 <ioe_read>
    8000048c:	02813703          	ld	a4,40(sp)
    80000490:	3e800593          	li	a1,1000
    80000494:	00004797          	auipc	a5,0x4
    80000498:	50478793          	addi	a5,a5,1284 # 80004998 <Begin_Time>
    8000049c:	02b75733          	divu	a4,a4,a1
    800004a0:	0007b503          	ld	a0,0(a5)
    800004a4:	000aa583          	lw	a1,0(s5)
    800004a8:	00100813          	li	a6,1
    800004ac:	00004a17          	auipc	s4,0x4
    800004b0:	524a0a13          	addi	s4,s4,1316 # 800049d0 <User_Time>
    800004b4:	00004897          	auipc	a7,0x4
    800004b8:	4f08aa23          	sw	a6,1268(a7) # 800049a8 <Done>
    800004bc:	00500813          	li	a6,5
    800004c0:	00013783          	ld	a5,0(sp)
    800004c4:	00813603          	ld	a2,8(sp)
    800004c8:	01013683          	ld	a3,16(sp)
    800004cc:	02071713          	slli	a4,a4,0x20
    800004d0:	02075713          	srli	a4,a4,0x20
    800004d4:	40a70533          	sub	a0,a4,a0
    800004d8:	00004897          	auipc	a7,0x4
    800004dc:	4ce8bc23          	sd	a4,1240(a7) # 800049b0 <End_Time>
    800004e0:	00aa3023          	sd	a0,0(s4)
    800004e4:	03058a63          	beq	a1,a6,80000518 <main+0x3a0>
    800004e8:	00001517          	auipc	a0,0x1
    800004ec:	f4850513          	addi	a0,a0,-184 # 80001430 <_etext+0xf4>
    800004f0:	00001717          	auipc	a4,0x1
    800004f4:	4c072423          	sw	zero,1224(a4) # 800019b8 <pass>
    800004f8:	4c9000ef          	jal	ra,800011c0 <printf>
    800004fc:	00500593          	li	a1,5
    80000500:	00001517          	auipc	a0,0x1
    80000504:	f5050513          	addi	a0,a0,-176 # 80001450 <_etext+0x114>
    80000508:	4b9000ef          	jal	ra,800011c0 <printf>
    8000050c:	01013683          	ld	a3,16(sp)
    80000510:	00813603          	ld	a2,8(sp)
    80000514:	00013783          	ld	a5,0(sp)
    80000518:	000b2583          	lw	a1,0(s6)
    8000051c:	00100713          	li	a4,1
    80000520:	04e58063          	beq	a1,a4,80000560 <main+0x3e8>
    80000524:	00001517          	auipc	a0,0x1
    80000528:	f4c50513          	addi	a0,a0,-180 # 80001470 <_etext+0x134>
    8000052c:	00d13823          	sd	a3,16(sp)
    80000530:	00c13423          	sd	a2,8(sp)
    80000534:	00f13023          	sd	a5,0(sp)
    80000538:	00001717          	auipc	a4,0x1
    8000053c:	48072023          	sw	zero,1152(a4) # 800019b8 <pass>
    80000540:	481000ef          	jal	ra,800011c0 <printf>
    80000544:	00100593          	li	a1,1
    80000548:	00001517          	auipc	a0,0x1
    8000054c:	f0850513          	addi	a0,a0,-248 # 80001450 <_etext+0x114>
    80000550:	471000ef          	jal	ra,800011c0 <printf>
    80000554:	01013683          	ld	a3,16(sp)
    80000558:	00813603          	ld	a2,8(sp)
    8000055c:	00013783          	ld	a5,0(sp)
    80000560:	0009c583          	lbu	a1,0(s3)
    80000564:	04100713          	li	a4,65
    80000568:	04e58063          	beq	a1,a4,800005a8 <main+0x430>
    8000056c:	00001517          	auipc	a0,0x1
    80000570:	f2450513          	addi	a0,a0,-220 # 80001490 <_etext+0x154>
    80000574:	00d13823          	sd	a3,16(sp)
    80000578:	00c13423          	sd	a2,8(sp)
    8000057c:	00f13023          	sd	a5,0(sp)
    80000580:	00001717          	auipc	a4,0x1
    80000584:	42072c23          	sw	zero,1080(a4) # 800019b8 <pass>
    80000588:	439000ef          	jal	ra,800011c0 <printf>
    8000058c:	04100593          	li	a1,65
    80000590:	00001517          	auipc	a0,0x1
    80000594:	f2050513          	addi	a0,a0,-224 # 800014b0 <_etext+0x174>
    80000598:	429000ef          	jal	ra,800011c0 <printf>
    8000059c:	01013683          	ld	a3,16(sp)
    800005a0:	00813603          	ld	a2,8(sp)
    800005a4:	00013783          	ld	a5,0(sp)
    800005a8:	0004c583          	lbu	a1,0(s1)
    800005ac:	04200713          	li	a4,66
    800005b0:	04e58063          	beq	a1,a4,800005f0 <main+0x478>
    800005b4:	00001517          	auipc	a0,0x1
    800005b8:	f1c50513          	addi	a0,a0,-228 # 800014d0 <_etext+0x194>
    800005bc:	00d13823          	sd	a3,16(sp)
    800005c0:	00c13423          	sd	a2,8(sp)
    800005c4:	00f13023          	sd	a5,0(sp)
    800005c8:	00001717          	auipc	a4,0x1
    800005cc:	3e072823          	sw	zero,1008(a4) # 800019b8 <pass>
    800005d0:	3f1000ef          	jal	ra,800011c0 <printf>
    800005d4:	04200593          	li	a1,66
    800005d8:	00001517          	auipc	a0,0x1
    800005dc:	ed850513          	addi	a0,a0,-296 # 800014b0 <_etext+0x174>
    800005e0:	3e1000ef          	jal	ra,800011c0 <printf>
    800005e4:	01013683          	ld	a3,16(sp)
    800005e8:	00813603          	ld	a2,8(sp)
    800005ec:	00013783          	ld	a5,0(sp)
    800005f0:	02092583          	lw	a1,32(s2)
    800005f4:	00700713          	li	a4,7
    800005f8:	04e58063          	beq	a1,a4,80000638 <main+0x4c0>
    800005fc:	00001517          	auipc	a0,0x1
    80000600:	ef450513          	addi	a0,a0,-268 # 800014f0 <_etext+0x1b4>
    80000604:	00d13823          	sd	a3,16(sp)
    80000608:	00c13423          	sd	a2,8(sp)
    8000060c:	00f13023          	sd	a5,0(sp)
    80000610:	00001717          	auipc	a4,0x1
    80000614:	3a072423          	sw	zero,936(a4) # 800019b8 <pass>
    80000618:	3a9000ef          	jal	ra,800011c0 <printf>
    8000061c:	00700593          	li	a1,7
    80000620:	00001517          	auipc	a0,0x1
    80000624:	e3050513          	addi	a0,a0,-464 # 80001450 <_etext+0x114>
    80000628:	399000ef          	jal	ra,800011c0 <printf>
    8000062c:	01013683          	ld	a3,16(sp)
    80000630:	00813603          	ld	a2,8(sp)
    80000634:	00013783          	ld	a5,0(sp)
    80000638:	65c42583          	lw	a1,1628(s0)
    8000063c:	0007a737          	lui	a4,0x7a
    80000640:	12a70713          	addi	a4,a4,298 # 7a12a <_entry_offset+0x7a12a>
    80000644:	02e58e63          	beq	a1,a4,80000680 <main+0x508>
    80000648:	00001517          	auipc	a0,0x1
    8000064c:	ec850513          	addi	a0,a0,-312 # 80001510 <_etext+0x1d4>
    80000650:	00d13823          	sd	a3,16(sp)
    80000654:	00c13423          	sd	a2,8(sp)
    80000658:	00f13023          	sd	a5,0(sp)
    8000065c:	00001717          	auipc	a4,0x1
    80000660:	34072e23          	sw	zero,860(a4) # 800019b8 <pass>
    80000664:	35d000ef          	jal	ra,800011c0 <printf>
    80000668:	00001517          	auipc	a0,0x1
    8000066c:	ec850513          	addi	a0,a0,-312 # 80001530 <_etext+0x1f4>
    80000670:	351000ef          	jal	ra,800011c0 <printf>
    80000674:	01013683          	ld	a3,16(sp)
    80000678:	00813603          	ld	a2,8(sp)
    8000067c:	00013783          	ld	a5,0(sp)
    80000680:	000cb703          	ld	a4,0(s9)
    80000684:	00872583          	lw	a1,8(a4)
    80000688:	04058063          	beqz	a1,800006c8 <main+0x550>
    8000068c:	00001517          	auipc	a0,0x1
    80000690:	ed450513          	addi	a0,a0,-300 # 80001560 <_etext+0x224>
    80000694:	00d13823          	sd	a3,16(sp)
    80000698:	00c13423          	sd	a2,8(sp)
    8000069c:	00f13023          	sd	a5,0(sp)
    800006a0:	00001717          	auipc	a4,0x1
    800006a4:	30072c23          	sw	zero,792(a4) # 800019b8 <pass>
    800006a8:	319000ef          	jal	ra,800011c0 <printf>
    800006ac:	00000593          	li	a1,0
    800006b0:	00001517          	auipc	a0,0x1
    800006b4:	da050513          	addi	a0,a0,-608 # 80001450 <_etext+0x114>
    800006b8:	309000ef          	jal	ra,800011c0 <printf>
    800006bc:	01013683          	ld	a3,16(sp)
    800006c0:	00813603          	ld	a2,8(sp)
    800006c4:	00013783          	ld	a5,0(sp)
    800006c8:	000cb583          	ld	a1,0(s9)
    800006cc:	00200713          	li	a4,2
    800006d0:	00c5a583          	lw	a1,12(a1)
    800006d4:	04e58063          	beq	a1,a4,80000714 <main+0x59c>
    800006d8:	00001517          	auipc	a0,0x1
    800006dc:	eb050513          	addi	a0,a0,-336 # 80001588 <_etext+0x24c>
    800006e0:	00d13823          	sd	a3,16(sp)
    800006e4:	00c13423          	sd	a2,8(sp)
    800006e8:	00f13023          	sd	a5,0(sp)
    800006ec:	00001717          	auipc	a4,0x1
    800006f0:	2c072623          	sw	zero,716(a4) # 800019b8 <pass>
    800006f4:	2cd000ef          	jal	ra,800011c0 <printf>
    800006f8:	00200593          	li	a1,2
    800006fc:	00001517          	auipc	a0,0x1
    80000700:	d5450513          	addi	a0,a0,-684 # 80001450 <_etext+0x114>
    80000704:	2bd000ef          	jal	ra,800011c0 <printf>
    80000708:	01013683          	ld	a3,16(sp)
    8000070c:	00813603          	ld	a2,8(sp)
    80000710:	00013783          	ld	a5,0(sp)
    80000714:	000cb583          	ld	a1,0(s9)
    80000718:	01100713          	li	a4,17
    8000071c:	0105a583          	lw	a1,16(a1)
    80000720:	04e58063          	beq	a1,a4,80000760 <main+0x5e8>
    80000724:	00001517          	auipc	a0,0x1
    80000728:	e8c50513          	addi	a0,a0,-372 # 800015b0 <_etext+0x274>
    8000072c:	00d13823          	sd	a3,16(sp)
    80000730:	00c13423          	sd	a2,8(sp)
    80000734:	00f13023          	sd	a5,0(sp)
    80000738:	00001717          	auipc	a4,0x1
    8000073c:	28072023          	sw	zero,640(a4) # 800019b8 <pass>
    80000740:	281000ef          	jal	ra,800011c0 <printf>
    80000744:	01100593          	li	a1,17
    80000748:	00001517          	auipc	a0,0x1
    8000074c:	d0850513          	addi	a0,a0,-760 # 80001450 <_etext+0x114>
    80000750:	271000ef          	jal	ra,800011c0 <printf>
    80000754:	01013683          	ld	a3,16(sp)
    80000758:	00813603          	ld	a2,8(sp)
    8000075c:	00013783          	ld	a5,0(sp)
    80000760:	000cb503          	ld	a0,0(s9)
    80000764:	00001597          	auipc	a1,0x1
    80000768:	bec58593          	addi	a1,a1,-1044 # 80001350 <_etext+0x14>
    8000076c:	00d13823          	sd	a3,16(sp)
    80000770:	01450513          	addi	a0,a0,20
    80000774:	00c13423          	sd	a2,8(sp)
    80000778:	00f13023          	sd	a5,0(sp)
    8000077c:	341000ef          	jal	ra,800012bc <strcmp>
    80000780:	00013783          	ld	a5,0(sp)
    80000784:	00813603          	ld	a2,8(sp)
    80000788:	01013683          	ld	a3,16(sp)
    8000078c:	02050c63          	beqz	a0,800007c4 <main+0x64c>
    80000790:	000cb583          	ld	a1,0(s9)
    80000794:	00001517          	auipc	a0,0x1
    80000798:	e4450513          	addi	a0,a0,-444 # 800015d8 <_etext+0x29c>
    8000079c:	00001717          	auipc	a4,0x1
    800007a0:	20072e23          	sw	zero,540(a4) # 800019b8 <pass>
    800007a4:	01458593          	addi	a1,a1,20
    800007a8:	219000ef          	jal	ra,800011c0 <printf>
    800007ac:	00001517          	auipc	a0,0x1
    800007b0:	e5450513          	addi	a0,a0,-428 # 80001600 <_etext+0x2c4>
    800007b4:	20d000ef          	jal	ra,800011c0 <printf>
    800007b8:	01013683          	ld	a3,16(sp)
    800007bc:	00813603          	ld	a2,8(sp)
    800007c0:	00013783          	ld	a5,0(sp)
    800007c4:	00004717          	auipc	a4,0x4
    800007c8:	1fc70713          	addi	a4,a4,508 # 800049c0 <Next_Ptr_Glob>
    800007cc:	00073703          	ld	a4,0(a4)
    800007d0:	00872583          	lw	a1,8(a4)
    800007d4:	04058063          	beqz	a1,80000814 <main+0x69c>
    800007d8:	00001517          	auipc	a0,0x1
    800007dc:	e6050513          	addi	a0,a0,-416 # 80001638 <_etext+0x2fc>
    800007e0:	00d13823          	sd	a3,16(sp)
    800007e4:	00c13423          	sd	a2,8(sp)
    800007e8:	00f13023          	sd	a5,0(sp)
    800007ec:	00001717          	auipc	a4,0x1
    800007f0:	1c072623          	sw	zero,460(a4) # 800019b8 <pass>
    800007f4:	1cd000ef          	jal	ra,800011c0 <printf>
    800007f8:	00000593          	li	a1,0
    800007fc:	00001517          	auipc	a0,0x1
    80000800:	c5450513          	addi	a0,a0,-940 # 80001450 <_etext+0x114>
    80000804:	1bd000ef          	jal	ra,800011c0 <printf>
    80000808:	01013683          	ld	a3,16(sp)
    8000080c:	00813603          	ld	a2,8(sp)
    80000810:	00013783          	ld	a5,0(sp)
    80000814:	00004717          	auipc	a4,0x4
    80000818:	1ac70713          	addi	a4,a4,428 # 800049c0 <Next_Ptr_Glob>
    8000081c:	00073583          	ld	a1,0(a4)
    80000820:	00100713          	li	a4,1
    80000824:	00c5a583          	lw	a1,12(a1)
    80000828:	04e58063          	beq	a1,a4,80000868 <main+0x6f0>
    8000082c:	00001517          	auipc	a0,0x1
    80000830:	e3450513          	addi	a0,a0,-460 # 80001660 <_etext+0x324>
    80000834:	00d13823          	sd	a3,16(sp)
    80000838:	00c13423          	sd	a2,8(sp)
    8000083c:	00f13023          	sd	a5,0(sp)
    80000840:	00001717          	auipc	a4,0x1
    80000844:	16072c23          	sw	zero,376(a4) # 800019b8 <pass>
    80000848:	179000ef          	jal	ra,800011c0 <printf>
    8000084c:	00100593          	li	a1,1
    80000850:	00001517          	auipc	a0,0x1
    80000854:	c0050513          	addi	a0,a0,-1024 # 80001450 <_etext+0x114>
    80000858:	169000ef          	jal	ra,800011c0 <printf>
    8000085c:	01013683          	ld	a3,16(sp)
    80000860:	00813603          	ld	a2,8(sp)
    80000864:	00013783          	ld	a5,0(sp)
    80000868:	00004717          	auipc	a4,0x4
    8000086c:	15870713          	addi	a4,a4,344 # 800049c0 <Next_Ptr_Glob>
    80000870:	00073583          	ld	a1,0(a4)
    80000874:	01200713          	li	a4,18
    80000878:	0105a583          	lw	a1,16(a1)
    8000087c:	04e58063          	beq	a1,a4,800008bc <main+0x744>
    80000880:	00001517          	auipc	a0,0x1
    80000884:	e0850513          	addi	a0,a0,-504 # 80001688 <_etext+0x34c>
    80000888:	00d13823          	sd	a3,16(sp)
    8000088c:	00c13423          	sd	a2,8(sp)
    80000890:	00f13023          	sd	a5,0(sp)
    80000894:	00001717          	auipc	a4,0x1
    80000898:	12072223          	sw	zero,292(a4) # 800019b8 <pass>
    8000089c:	125000ef          	jal	ra,800011c0 <printf>
    800008a0:	01200593          	li	a1,18
    800008a4:	00001517          	auipc	a0,0x1
    800008a8:	bac50513          	addi	a0,a0,-1108 # 80001450 <_etext+0x114>
    800008ac:	115000ef          	jal	ra,800011c0 <printf>
    800008b0:	01013683          	ld	a3,16(sp)
    800008b4:	00813603          	ld	a2,8(sp)
    800008b8:	00013783          	ld	a5,0(sp)
    800008bc:	00004417          	auipc	s0,0x4
    800008c0:	10440413          	addi	s0,s0,260 # 800049c0 <Next_Ptr_Glob>
    800008c4:	00043503          	ld	a0,0(s0)
    800008c8:	00001597          	auipc	a1,0x1
    800008cc:	a8858593          	addi	a1,a1,-1400 # 80001350 <_etext+0x14>
    800008d0:	00d13823          	sd	a3,16(sp)
    800008d4:	01450513          	addi	a0,a0,20
    800008d8:	00c13423          	sd	a2,8(sp)
    800008dc:	00f13023          	sd	a5,0(sp)
    800008e0:	1dd000ef          	jal	ra,800012bc <strcmp>
    800008e4:	00013783          	ld	a5,0(sp)
    800008e8:	00813603          	ld	a2,8(sp)
    800008ec:	01013683          	ld	a3,16(sp)
    800008f0:	02050c63          	beqz	a0,80000928 <main+0x7b0>
    800008f4:	00043583          	ld	a1,0(s0)
    800008f8:	00001517          	auipc	a0,0x1
    800008fc:	db850513          	addi	a0,a0,-584 # 800016b0 <_etext+0x374>
    80000900:	00001717          	auipc	a4,0x1
    80000904:	0a072c23          	sw	zero,184(a4) # 800019b8 <pass>
    80000908:	01458593          	addi	a1,a1,20
    8000090c:	0b5000ef          	jal	ra,800011c0 <printf>
    80000910:	00001517          	auipc	a0,0x1
    80000914:	cf050513          	addi	a0,a0,-784 # 80001600 <_etext+0x2c4>
    80000918:	0a9000ef          	jal	ra,800011c0 <printf>
    8000091c:	01013683          	ld	a3,16(sp)
    80000920:	00813603          	ld	a2,8(sp)
    80000924:	00013783          	ld	a5,0(sp)
    80000928:	00500713          	li	a4,5
    8000092c:	02e60e63          	beq	a2,a4,80000968 <main+0x7f0>
    80000930:	00060593          	mv	a1,a2
    80000934:	00001517          	auipc	a0,0x1
    80000938:	da450513          	addi	a0,a0,-604 # 800016d8 <_etext+0x39c>
    8000093c:	00d13423          	sd	a3,8(sp)
    80000940:	00f13023          	sd	a5,0(sp)
    80000944:	00001717          	auipc	a4,0x1
    80000948:	06072a23          	sw	zero,116(a4) # 800019b8 <pass>
    8000094c:	075000ef          	jal	ra,800011c0 <printf>
    80000950:	00500593          	li	a1,5
    80000954:	00001517          	auipc	a0,0x1
    80000958:	afc50513          	addi	a0,a0,-1284 # 80001450 <_etext+0x114>
    8000095c:	065000ef          	jal	ra,800011c0 <printf>
    80000960:	00813683          	ld	a3,8(sp)
    80000964:	00013783          	ld	a5,0(sp)
    80000968:	00d00713          	li	a4,13
    8000096c:	02e78a63          	beq	a5,a4,800009a0 <main+0x828>
    80000970:	00078593          	mv	a1,a5
    80000974:	00001517          	auipc	a0,0x1
    80000978:	d8450513          	addi	a0,a0,-636 # 800016f8 <_etext+0x3bc>
    8000097c:	00d13023          	sd	a3,0(sp)
    80000980:	00001797          	auipc	a5,0x1
    80000984:	0207ac23          	sw	zero,56(a5) # 800019b8 <pass>
    80000988:	039000ef          	jal	ra,800011c0 <printf>
    8000098c:	00d00593          	li	a1,13
    80000990:	00001517          	auipc	a0,0x1
    80000994:	ac050513          	addi	a0,a0,-1344 # 80001450 <_etext+0x114>
    80000998:	029000ef          	jal	ra,800011c0 <printf>
    8000099c:	00013683          	ld	a3,0(sp)
    800009a0:	02069663          	bnez	a3,800009cc <main+0x854>
    800009a4:	00000593          	li	a1,0
    800009a8:	00001517          	auipc	a0,0x1
    800009ac:	d7050513          	addi	a0,a0,-656 # 80001718 <_etext+0x3dc>
    800009b0:	00001797          	auipc	a5,0x1
    800009b4:	0007a423          	sw	zero,8(a5) # 800019b8 <pass>
    800009b8:	009000ef          	jal	ra,800011c0 <printf>
    800009bc:	00100593          	li	a1,1
    800009c0:	00001517          	auipc	a0,0x1
    800009c4:	a9050513          	addi	a0,a0,-1392 # 80001450 <_etext+0x114>
    800009c8:	7f8000ef          	jal	ra,800011c0 <printf>
    800009cc:	00001597          	auipc	a1,0x1
    800009d0:	9a458593          	addi	a1,a1,-1628 # 80001370 <_etext+0x34>
    800009d4:	03010513          	addi	a0,sp,48
    800009d8:	0e5000ef          	jal	ra,800012bc <strcmp>
    800009dc:	02050463          	beqz	a0,80000a04 <main+0x88c>
    800009e0:	03010593          	addi	a1,sp,48
    800009e4:	00001517          	auipc	a0,0x1
    800009e8:	d5450513          	addi	a0,a0,-684 # 80001738 <_etext+0x3fc>
    800009ec:	00001797          	auipc	a5,0x1
    800009f0:	fc07a623          	sw	zero,-52(a5) # 800019b8 <pass>
    800009f4:	7cc000ef          	jal	ra,800011c0 <printf>
    800009f8:	00001517          	auipc	a0,0x1
    800009fc:	d6050513          	addi	a0,a0,-672 # 80001758 <_etext+0x41c>
    80000a00:	7c0000ef          	jal	ra,800011c0 <printf>
    80000a04:	00001597          	auipc	a1,0x1
    80000a08:	9ec58593          	addi	a1,a1,-1556 # 800013f0 <_etext+0xb4>
    80000a0c:	05010513          	addi	a0,sp,80
    80000a10:	0ad000ef          	jal	ra,800012bc <strcmp>
    80000a14:	02050463          	beqz	a0,80000a3c <main+0x8c4>
    80000a18:	05010593          	addi	a1,sp,80
    80000a1c:	00001517          	auipc	a0,0x1
    80000a20:	d7450513          	addi	a0,a0,-652 # 80001790 <_etext+0x454>
    80000a24:	00001797          	auipc	a5,0x1
    80000a28:	f807aa23          	sw	zero,-108(a5) # 800019b8 <pass>
    80000a2c:	794000ef          	jal	ra,800011c0 <printf>
    80000a30:	00001517          	auipc	a0,0x1
    80000a34:	d8050513          	addi	a0,a0,-640 # 800017b0 <_etext+0x474>
    80000a38:	788000ef          	jal	ra,800011c0 <printf>
    80000a3c:	000a2583          	lw	a1,0(s4)
    80000a40:	00001517          	auipc	a0,0x1
    80000a44:	da850513          	addi	a0,a0,-600 # 800017e8 <_etext+0x4ac>
    80000a48:	778000ef          	jal	ra,800011c0 <printf>
    80000a4c:	00001517          	auipc	a0,0x1
    80000a50:	db450513          	addi	a0,a0,-588 # 80001800 <_etext+0x4c4>
    80000a54:	76c000ef          	jal	ra,800011c0 <printf>
    80000a58:	00001797          	auipc	a5,0x1
    80000a5c:	f607a783          	lw	a5,-160(a5) # 800019b8 <pass>
    80000a60:	00001597          	auipc	a1,0x1
    80000a64:	8e058593          	addi	a1,a1,-1824 # 80001340 <_etext+0x4>
    80000a68:	00079663          	bnez	a5,80000a74 <main+0x8fc>
    80000a6c:	00001597          	auipc	a1,0x1
    80000a70:	8dc58593          	addi	a1,a1,-1828 # 80001348 <_etext+0xc>
    80000a74:	000a3603          	ld	a2,0(s4)
    80000a78:	000d77b7          	lui	a5,0xd7
    80000a7c:	1047879b          	addiw	a5,a5,260 # d7104 <_entry_offset+0xd7104>
    80000a80:	02c7c63b          	divw	a2,a5,a2
    80000a84:	00001517          	auipc	a0,0x1
    80000a88:	db450513          	addi	a0,a0,-588 # 80001838 <_etext+0x4fc>
    80000a8c:	734000ef          	jal	ra,800011c0 <printf>
    80000a90:	00001517          	auipc	a0,0x1
    80000a94:	dc850513          	addi	a0,a0,-568 # 80001858 <_etext+0x51c>
    80000a98:	728000ef          	jal	ra,800011c0 <printf>
    80000a9c:	0d813083          	ld	ra,216(sp)
    80000aa0:	0d013403          	ld	s0,208(sp)
    80000aa4:	0c813483          	ld	s1,200(sp)
    80000aa8:	0c013903          	ld	s2,192(sp)
    80000aac:	0b813983          	ld	s3,184(sp)
    80000ab0:	0b013a03          	ld	s4,176(sp)
    80000ab4:	0a813a83          	ld	s5,168(sp)
    80000ab8:	0a013b03          	ld	s6,160(sp)
    80000abc:	09813b83          	ld	s7,152(sp)
    80000ac0:	09013c03          	ld	s8,144(sp)
    80000ac4:	08813c83          	ld	s9,136(sp)
    80000ac8:	08013d03          	ld	s10,128(sp)
    80000acc:	07813d83          	ld	s11,120(sp)
    80000ad0:	00000513          	li	a0,0
    80000ad4:	0e010113          	addi	sp,sp,224
    80000ad8:	00008067          	ret
    80000adc:	00f98023          	sb	a5,0(s3)
    80000ae0:	00100713          	li	a4,1
    80000ae4:	911ff06f          	j	800003f4 <main+0x27c>
    80000ae8:	00100693          	li	a3,1
    80000aec:	00078b93          	mv	s7,a5
    80000af0:	869ff06f          	j	80000358 <main+0x1e0>
    80000af4:	00d00793          	li	a5,13
    80000af8:	00100613          	li	a2,1
    80000afc:	955ff06f          	j	80000450 <main+0x2d8>

0000000080000b00 <__am_timer_config>:
    80000b00:	00100793          	li	a5,1
    80000b04:	00f50023          	sb	a5,0(a0)
    80000b08:	00f500a3          	sb	a5,1(a0)
    80000b0c:	00008067          	ret

0000000080000b10 <__am_input_config>:
    80000b10:	00100793          	li	a5,1
    80000b14:	00f50023          	sb	a5,0(a0)
    80000b18:	00008067          	ret

0000000080000b1c <__am_uart_config>:
    80000b1c:	00050023          	sb	zero,0(a0)
    80000b20:	00008067          	ret

0000000080000b24 <__am_net_config>:
    80000b24:	00050023          	sb	zero,0(a0)
    80000b28:	00008067          	ret

0000000080000b2c <fail>:
    80000b2c:	ff010113          	addi	sp,sp,-16
    80000b30:	00813023          	sd	s0,0(sp)
    80000b34:	00113423          	sd	ra,8(sp)
    80000b38:	00001417          	auipc	s0,0x1
    80000b3c:	d6040413          	addi	s0,s0,-672 # 80001898 <_etext+0x55c>
    80000b40:	04100513          	li	a0,65
    80000b44:	00140413          	addi	s0,s0,1
    80000b48:	2d0000ef          	jal	ra,80000e18 <putch>
    80000b4c:	00044503          	lbu	a0,0(s0)
    80000b50:	fe051ae3          	bnez	a0,80000b44 <fail+0x18>
    80000b54:	00001417          	auipc	s0,0x1
    80000b58:	d5440413          	addi	s0,s0,-684 # 800018a8 <_etext+0x56c>
    80000b5c:	06100513          	li	a0,97
    80000b60:	00140413          	addi	s0,s0,1
    80000b64:	2b4000ef          	jal	ra,80000e18 <putch>
    80000b68:	00044503          	lbu	a0,0(s0)
    80000b6c:	fe051ae3          	bnez	a0,80000b60 <fail+0x34>
    80000b70:	00001417          	auipc	s0,0x1
    80000b74:	d5840413          	addi	s0,s0,-680 # 800018c8 <_etext+0x58c>
    80000b78:	02000513          	li	a0,32
    80000b7c:	00140413          	addi	s0,s0,1
    80000b80:	298000ef          	jal	ra,80000e18 <putch>
    80000b84:	00044503          	lbu	a0,0(s0)
    80000b88:	fe051ae3          	bnez	a0,80000b7c <fail+0x50>
    80000b8c:	00100513          	li	a0,1
    80000b90:	298000ef          	jal	ra,80000e28 <halt>

0000000080000b94 <ioe_init>:
    80000b94:	ff010113          	addi	sp,sp,-16
    80000b98:	00113423          	sd	ra,8(sp)
    80000b9c:	00001797          	auipc	a5,0x1
    80000ba0:	e2478793          	addi	a5,a5,-476 # 800019c0 <lut>
    80000ba4:	00001697          	auipc	a3,0x1
    80000ba8:	21c68693          	addi	a3,a3,540 # 80001dc0 <Arr_1_Glob>
    80000bac:	00000617          	auipc	a2,0x0
    80000bb0:	f8060613          	addi	a2,a2,-128 # 80000b2c <fail>
    80000bb4:	00c0006f          	j	80000bc0 <ioe_init+0x2c>
    80000bb8:	00878793          	addi	a5,a5,8
    80000bbc:	00d78c63          	beq	a5,a3,80000bd4 <ioe_init+0x40>
    80000bc0:	0007b703          	ld	a4,0(a5)
    80000bc4:	fe071ae3          	bnez	a4,80000bb8 <ioe_init+0x24>
    80000bc8:	00c7b023          	sd	a2,0(a5)
    80000bcc:	00878793          	addi	a5,a5,8
    80000bd0:	fed798e3          	bne	a5,a3,80000bc0 <ioe_init+0x2c>
    80000bd4:	0e8000ef          	jal	ra,80000cbc <__am_gpu_init>
    80000bd8:	034000ef          	jal	ra,80000c0c <__am_timer_init>
    80000bdc:	210000ef          	jal	ra,80000dec <__am_audio_init>
    80000be0:	00813083          	ld	ra,8(sp)
    80000be4:	00100513          	li	a0,1
    80000be8:	01010113          	addi	sp,sp,16
    80000bec:	00008067          	ret

0000000080000bf0 <ioe_read>:
    80000bf0:	00351513          	slli	a0,a0,0x3
    80000bf4:	00001797          	auipc	a5,0x1
    80000bf8:	dcc78793          	addi	a5,a5,-564 # 800019c0 <lut>
    80000bfc:	00a787b3          	add	a5,a5,a0
    80000c00:	0007b783          	ld	a5,0(a5)
    80000c04:	00058513          	mv	a0,a1
    80000c08:	00078067          	jr	a5

0000000080000c0c <__am_timer_init>:
    80000c0c:	00008067          	ret

0000000080000c10 <__am_timer_uptime>:
    80000c10:	00500793          	li	a5,5
    80000c14:	01d79793          	slli	a5,a5,0x1d
    80000c18:	04c7a703          	lw	a4,76(a5)
    80000c1c:	ff010113          	addi	sp,sp,-16
    80000c20:	0007071b          	sext.w	a4,a4
    80000c24:	00e12023          	sw	a4,0(sp)
    80000c28:	0487a783          	lw	a5,72(a5)
    80000c2c:	0007879b          	sext.w	a5,a5
    80000c30:	00f12223          	sw	a5,4(sp)
    80000c34:	00012783          	lw	a5,0(sp)
    80000c38:	00412783          	lw	a5,4(sp)
    80000c3c:	02079793          	slli	a5,a5,0x20
    80000c40:	0207d793          	srli	a5,a5,0x20
    80000c44:	00f13423          	sd	a5,8(sp)
    80000c48:	00813783          	ld	a5,8(sp)
    80000c4c:	00f53023          	sd	a5,0(a0)
    80000c50:	01010113          	addi	sp,sp,16
    80000c54:	00008067          	ret

0000000080000c58 <__am_timer_rtc>:
    80000c58:	76c00793          	li	a5,1900
    80000c5c:	00052a23          	sw	zero,20(a0)
    80000c60:	00052823          	sw	zero,16(a0)
    80000c64:	00052623          	sw	zero,12(a0)
    80000c68:	00052423          	sw	zero,8(a0)
    80000c6c:	00052223          	sw	zero,4(a0)
    80000c70:	00f52023          	sw	a5,0(a0)
    80000c74:	00008067          	ret

0000000080000c78 <__am_input_keybrd>:
    80000c78:	00500793          	li	a5,5
    80000c7c:	01d79793          	slli	a5,a5,0x1d
    80000c80:	0607a783          	lw	a5,96(a5)
    80000c84:	ff010113          	addi	sp,sp,-16
    80000c88:	ffff86b7          	lui	a3,0xffff8
    80000c8c:	0007879b          	sext.w	a5,a5
    80000c90:	00f12623          	sw	a5,12(sp)
    80000c94:	00c12783          	lw	a5,12(sp)
    80000c98:	00c12703          	lw	a4,12(sp)
    80000c9c:	fff68693          	addi	a3,a3,-1 # ffffffffffff7fff <_end+0xffffffff7ffeafff>
    80000ca0:	00f7d793          	srli	a5,a5,0xf
    80000ca4:	0017f793          	andi	a5,a5,1
    80000ca8:	00d77733          	and	a4,a4,a3
    80000cac:	00f50023          	sb	a5,0(a0)
    80000cb0:	00e52223          	sw	a4,4(a0)
    80000cb4:	01010113          	addi	sp,sp,16
    80000cb8:	00008067          	ret

0000000080000cbc <__am_gpu_init>:
    80000cbc:	00008067          	ret

0000000080000cc0 <__am_gpu_config>:
    80000cc0:	00500793          	li	a5,5
    80000cc4:	01d79793          	slli	a5,a5,0x1d
    80000cc8:	1007a783          	lw	a5,256(a5)
    80000ccc:	00100613          	li	a2,1
    80000cd0:	00c51023          	sh	a2,0(a0)
    80000cd4:	0107d69b          	srliw	a3,a5,0x10
    80000cd8:	03079793          	slli	a5,a5,0x30
    80000cdc:	0307d793          	srli	a5,a5,0x30
    80000ce0:	02f6873b          	mulw	a4,a3,a5
    80000ce4:	00f52423          	sw	a5,8(a0)
    80000ce8:	00d52223          	sw	a3,4(a0)
    80000cec:	0027179b          	slliw	a5,a4,0x2
    80000cf0:	00f52623          	sw	a5,12(a0)
    80000cf4:	00008067          	ret

0000000080000cf8 <__am_gpu_fbdraw>:
    80000cf8:	00500793          	li	a5,5
    80000cfc:	00452e03          	lw	t3,4(a0)
    80000d00:	01452283          	lw	t0,20(a0)
    80000d04:	01d79793          	slli	a5,a5,0x1d
    80000d08:	1007af83          	lw	t6,256(a5)
    80000d0c:	fe010113          	addi	sp,sp,-32
    80000d10:	00813c23          	sd	s0,24(sp)
    80000d14:	01213423          	sd	s2,8(sp)
    80000d18:	00913823          	sd	s1,16(sp)
    80000d1c:	01c282bb          	addw	t0,t0,t3
    80000d20:	010fde9b          	srliw	t4,t6,0x10
    80000d24:	00052f03          	lw	t5,0(a0)
    80000d28:	00853403          	ld	s0,8(a0)
    80000d2c:	01052903          	lw	s2,16(a0)
    80000d30:	010fdf9b          	srliw	t6,t6,0x10
    80000d34:	085e7063          	bgeu	t3,t0,80000db4 <__am_gpu_fbdraw+0xbc>
    80000d38:	000e079b          	sext.w	a5,t3
    80000d3c:	02fe8ebb          	mulw	t4,t4,a5
    80000d40:	000f039b          	sext.w	t2,t5
    80000d44:	0a100893          	li	a7,161
    80000d48:	0123883b          	addw	a6,t2,s2
    80000d4c:	00000313          	li	t1,0
    80000d50:	01889893          	slli	a7,a7,0x18
    80000d54:	001f049b          	addiw	s1,t5,1
    80000d58:	fff9091b          	addiw	s2,s2,-1
    80000d5c:	0503f663          	bgeu	t2,a6,80000da8 <__am_gpu_fbdraw+0xb0>
    80000d60:	00231793          	slli	a5,t1,0x2
    80000d64:	01df05b3          	add	a1,t5,t4
    80000d68:	00f407b3          	add	a5,s0,a5
    80000d6c:	00259593          	slli	a1,a1,0x2
    80000d70:	40f585b3          	sub	a1,a1,a5
    80000d74:	000f0693          	mv	a3,t5
    80000d78:	0007a603          	lw	a2,0(a5)
    80000d7c:	00b78733          	add	a4,a5,a1
    80000d80:	00e88733          	add	a4,a7,a4
    80000d84:	00c72023          	sw	a2,0(a4)
    80000d88:	0016869b          	addiw	a3,a3,1
    80000d8c:	00478793          	addi	a5,a5,4
    80000d90:	ff06e4e3          	bltu	a3,a6,80000d78 <__am_gpu_fbdraw+0x80>
    80000d94:	0013031b          	addiw	t1,t1,1
    80000d98:	00000793          	li	a5,0
    80000d9c:	00986463          	bltu	a6,s1,80000da4 <__am_gpu_fbdraw+0xac>
    80000da0:	00090793          	mv	a5,s2
    80000da4:	0067833b          	addw	t1,a5,t1
    80000da8:	001e0e1b          	addiw	t3,t3,1
    80000dac:	01df8ebb          	addw	t4,t6,t4
    80000db0:	fa5e66e3          	bltu	t3,t0,80000d5c <__am_gpu_fbdraw+0x64>
    80000db4:	01854783          	lbu	a5,24(a0)
    80000db8:	00078a63          	beqz	a5,80000dcc <__am_gpu_fbdraw+0xd4>
    80000dbc:	00500793          	li	a5,5
    80000dc0:	01d79793          	slli	a5,a5,0x1d
    80000dc4:	00100713          	li	a4,1
    80000dc8:	10e7a223          	sw	a4,260(a5)
    80000dcc:	01813403          	ld	s0,24(sp)
    80000dd0:	01013483          	ld	s1,16(sp)
    80000dd4:	00813903          	ld	s2,8(sp)
    80000dd8:	02010113          	addi	sp,sp,32
    80000ddc:	00008067          	ret

0000000080000de0 <__am_gpu_status>:
    80000de0:	00100793          	li	a5,1
    80000de4:	00f50023          	sb	a5,0(a0)
    80000de8:	00008067          	ret

0000000080000dec <__am_audio_init>:
    80000dec:	00008067          	ret

0000000080000df0 <__am_audio_config>:
    80000df0:	00050023          	sb	zero,0(a0)
    80000df4:	00008067          	ret

0000000080000df8 <__am_audio_ctrl>:
    80000df8:	00008067          	ret

0000000080000dfc <__am_audio_status>:
    80000dfc:	00052023          	sw	zero,0(a0)
    80000e00:	00008067          	ret

0000000080000e04 <__am_audio_play>:
    80000e04:	00008067          	ret

0000000080000e08 <__am_disk_config>:
    80000e08:	00050023          	sb	zero,0(a0)
    80000e0c:	00008067          	ret

0000000080000e10 <__am_disk_status>:
    80000e10:	00008067          	ret

0000000080000e14 <__am_disk_blkio>:
    80000e14:	00008067          	ret

0000000080000e18 <putch>:
    80000e18:	00500793          	li	a5,5
    80000e1c:	01d79793          	slli	a5,a5,0x1d
    80000e20:	3ea78c23          	sb	a0,1016(a5)
    80000e24:	00008067          	ret

0000000080000e28 <halt>:
    80000e28:	00050513          	mv	a0,a0
    80000e2c:	00100073          	ebreak
    80000e30:	0000006f          	j	80000e30 <halt+0x8>

0000000080000e34 <_trm_init>:
    80000e34:	ff010113          	addi	sp,sp,-16
    80000e38:	00001517          	auipc	a0,0x1
    80000e3c:	b7050513          	addi	a0,a0,-1168 # 800019a8 <mainargs>
    80000e40:	00113423          	sd	ra,8(sp)
    80000e44:	b34ff0ef          	jal	ra,80000178 <main>
    80000e48:	00050513          	mv	a0,a0
    80000e4c:	00100073          	ebreak
    80000e50:	0000006f          	j	80000e50 <_trm_init+0x1c>

0000000080000e54 <uint2str_hex>:
    80000e54:	f9010113          	addi	sp,sp,-112
    80000e58:	00810693          	addi	a3,sp,8
    80000e5c:	00000713          	li	a4,0
    80000e60:	00001e17          	auipc	t3,0x1
    80000e64:	ac8e0e13          	addi	t3,t3,-1336 # 80001928 <str_hex>
    80000e68:	00f00313          	li	t1,15
    80000e6c:	00f57793          	andi	a5,a0,15
    80000e70:	00fe07b3          	add	a5,t3,a5
    80000e74:	0007c803          	lbu	a6,0(a5)
    80000e78:	0005079b          	sext.w	a5,a0
    80000e7c:	00070893          	mv	a7,a4
    80000e80:	01068023          	sb	a6,0(a3)
    80000e84:	0045551b          	srliw	a0,a0,0x4
    80000e88:	0017071b          	addiw	a4,a4,1
    80000e8c:	00168693          	addi	a3,a3,1
    80000e90:	fcf36ee3          	bltu	t1,a5,80000e6c <uint2str_hex+0x18>
    80000e94:	07070693          	addi	a3,a4,112
    80000e98:	002686b3          	add	a3,a3,sp
    80000e9c:	fff70793          	addi	a5,a4,-1
    80000ea0:	00158813          	addi	a6,a1,1
    80000ea4:	f8068c23          	sb	zero,-104(a3)
    80000ea8:	00810693          	addi	a3,sp,8
    80000eac:	00f686b3          	add	a3,a3,a5
    80000eb0:	01180833          	add	a6,a6,a7
    80000eb4:	00058793          	mv	a5,a1
    80000eb8:	0006c503          	lbu	a0,0(a3)
    80000ebc:	00178793          	addi	a5,a5,1
    80000ec0:	fff68693          	addi	a3,a3,-1
    80000ec4:	fea78fa3          	sb	a0,-1(a5)
    80000ec8:	ff0798e3          	bne	a5,a6,80000eb8 <uint2str_hex+0x64>
    80000ecc:	00e585b3          	add	a1,a1,a4
    80000ed0:	00058023          	sb	zero,0(a1)
    80000ed4:	00062783          	lw	a5,0(a2)
    80000ed8:	00e787bb          	addw	a5,a5,a4
    80000edc:	00f62023          	sw	a5,0(a2)
    80000ee0:	07010113          	addi	sp,sp,112
    80000ee4:	00008067          	ret

0000000080000ee8 <int2str>:
    80000ee8:	f9010113          	addi	sp,sp,-112
    80000eec:	02055063          	bgez	a0,80000f0c <int2str+0x24>
    80000ef0:	02d00793          	li	a5,45
    80000ef4:	00f58023          	sb	a5,0(a1)
    80000ef8:	00062783          	lw	a5,0(a2)
    80000efc:	40a0053b          	negw	a0,a0
    80000f00:	00158593          	addi	a1,a1,1
    80000f04:	0017879b          	addiw	a5,a5,1
    80000f08:	00f62023          	sw	a5,0(a2)
    80000f0c:	00810693          	addi	a3,sp,8
    80000f10:	00000713          	li	a4,0
    80000f14:	00a00813          	li	a6,10
    80000f18:	030567bb          	remw	a5,a0,a6
    80000f1c:	00168693          	addi	a3,a3,1
    80000f20:	00070893          	mv	a7,a4
    80000f24:	0017071b          	addiw	a4,a4,1
    80000f28:	0305453b          	divw	a0,a0,a6
    80000f2c:	0307879b          	addiw	a5,a5,48
    80000f30:	fef68fa3          	sb	a5,-1(a3)
    80000f34:	fe0512e3          	bnez	a0,80000f18 <int2str+0x30>
    80000f38:	07070693          	addi	a3,a4,112
    80000f3c:	002686b3          	add	a3,a3,sp
    80000f40:	fff70793          	addi	a5,a4,-1
    80000f44:	00158813          	addi	a6,a1,1
    80000f48:	f8068c23          	sb	zero,-104(a3)
    80000f4c:	00810693          	addi	a3,sp,8
    80000f50:	00f686b3          	add	a3,a3,a5
    80000f54:	01180833          	add	a6,a6,a7
    80000f58:	00058793          	mv	a5,a1
    80000f5c:	0006c503          	lbu	a0,0(a3)
    80000f60:	00178793          	addi	a5,a5,1
    80000f64:	fff68693          	addi	a3,a3,-1
    80000f68:	fea78fa3          	sb	a0,-1(a5)
    80000f6c:	fef818e3          	bne	a6,a5,80000f5c <int2str+0x74>
    80000f70:	00e585b3          	add	a1,a1,a4
    80000f74:	00058023          	sb	zero,0(a1)
    80000f78:	00062783          	lw	a5,0(a2)
    80000f7c:	00e787bb          	addw	a5,a5,a4
    80000f80:	00f62023          	sw	a5,0(a2)
    80000f84:	07010113          	addi	sp,sp,112
    80000f88:	00008067          	ret

0000000080000f8c <my_format>:
    80000f8c:	f9010113          	addi	sp,sp,-112
    80000f90:	03513c23          	sd	s5,56(sp)
    80000f94:	06113423          	sd	ra,104(sp)
    80000f98:	06813023          	sd	s0,96(sp)
    80000f9c:	04913c23          	sd	s1,88(sp)
    80000fa0:	05213823          	sd	s2,80(sp)
    80000fa4:	05313423          	sd	s3,72(sp)
    80000fa8:	05413023          	sd	s4,64(sp)
    80000fac:	03613823          	sd	s6,48(sp)
    80000fb0:	03713423          	sd	s7,40(sp)
    80000fb4:	03813023          	sd	s8,32(sp)
    80000fb8:	01913c23          	sd	s9,24(sp)
    80000fbc:	01a13823          	sd	s10,16(sp)
    80000fc0:	fffff2b7          	lui	t0,0xfffff
    80000fc4:	0005c783          	lbu	a5,0(a1)
    80000fc8:	00510133          	add	sp,sp,t0
    80000fcc:	00012623          	sw	zero,12(sp)
    80000fd0:	00050a93          	mv	s5,a0
    80000fd4:	06078463          	beqz	a5,8000103c <my_format+0xb0>
    80000fd8:	fffffd37          	lui	s10,0xfffff
    80000fdc:	00060693          	mv	a3,a2
    80000fe0:	00001637          	lui	a2,0x1
    80000fe4:	ffcd0d13          	addi	s10,s10,-4 # ffffffffffffeffc <_end+0xffffffff7fff1ffc>
    80000fe8:	01060613          	addi	a2,a2,16 # 1010 <_entry_offset+0x1010>
    80000fec:	01a60633          	add	a2,a2,s10
    80000ff0:	00058993          	mv	s3,a1
    80000ff4:	00000493          	li	s1,0
    80000ff8:	00000413          	li	s0,0
    80000ffc:	00000713          	li	a4,0
    80001000:	02500b13          	li	s6,37
    80001004:	07300b93          	li	s7,115
    80001008:	07800c93          	li	s9,120
    8000100c:	00260d33          	add	s10,a2,sp
    80001010:	06400c13          	li	s8,100
    80001014:	07678663          	beq	a5,s6,80001080 <my_format+0xf4>
    80001018:	009a8733          	add	a4,s5,s1
    8000101c:	00f70023          	sb	a5,0(a4)
    80001020:	0014849b          	addiw	s1,s1,1
    80001024:	0014041b          	addiw	s0,s0,1
    80001028:	008987b3          	add	a5,s3,s0
    8000102c:	0007c783          	lbu	a5,0(a5)
    80001030:	00040713          	mv	a4,s0
    80001034:	fe0790e3          	bnez	a5,80001014 <my_format+0x88>
    80001038:	009a8ab3          	add	s5,s5,s1
    8000103c:	000a8023          	sb	zero,0(s5)
    80001040:	000012b7          	lui	t0,0x1
    80001044:	00510133          	add	sp,sp,t0
    80001048:	06813083          	ld	ra,104(sp)
    8000104c:	06013403          	ld	s0,96(sp)
    80001050:	05813483          	ld	s1,88(sp)
    80001054:	05013903          	ld	s2,80(sp)
    80001058:	04813983          	ld	s3,72(sp)
    8000105c:	04013a03          	ld	s4,64(sp)
    80001060:	03813a83          	ld	s5,56(sp)
    80001064:	03013b03          	ld	s6,48(sp)
    80001068:	02813b83          	ld	s7,40(sp)
    8000106c:	02013c03          	ld	s8,32(sp)
    80001070:	01813c83          	ld	s9,24(sp)
    80001074:	01013d03          	ld	s10,16(sp)
    80001078:	07010113          	addi	sp,sp,112
    8000107c:	00008067          	ret
    80001080:	00e98733          	add	a4,s3,a4
    80001084:	00174783          	lbu	a5,1(a4)
    80001088:	0d778a63          	beq	a5,s7,8000115c <my_format+0x1d0>
    8000108c:	06fbe663          	bltu	s7,a5,800010f8 <my_format+0x16c>
    80001090:	fa0788e3          	beqz	a5,80001040 <my_format+0xb4>
    80001094:	13879263          	bne	a5,s8,800011b8 <my_format+0x22c>
    80001098:	0006a503          	lw	a0,0(a3)
    8000109c:	01010593          	addi	a1,sp,16
    800010a0:	000d0613          	mv	a2,s10
    800010a4:	00868913          	addi	s2,a3,8
    800010a8:	00012623          	sw	zero,12(sp)
    800010ac:	e3dff0ef          	jal	ra,80000ee8 <int2str>
    800010b0:	00c12583          	lw	a1,12(sp)
    800010b4:	02b05a63          	blez	a1,800010e8 <my_format+0x15c>
    800010b8:	fff5861b          	addiw	a2,a1,-1
    800010bc:	02061613          	slli	a2,a2,0x20
    800010c0:	01010793          	addi	a5,sp,16
    800010c4:	02065613          	srli	a2,a2,0x20
    800010c8:	00178693          	addi	a3,a5,1
    800010cc:	009a8733          	add	a4,s5,s1
    800010d0:	00d60633          	add	a2,a2,a3
    800010d4:	0007c683          	lbu	a3,0(a5)
    800010d8:	00178793          	addi	a5,a5,1
    800010dc:	00170713          	addi	a4,a4,1
    800010e0:	fed70fa3          	sb	a3,-1(a4)
    800010e4:	fec798e3          	bne	a5,a2,800010d4 <my_format+0x148>
    800010e8:	009584bb          	addw	s1,a1,s1
    800010ec:	0024041b          	addiw	s0,s0,2
    800010f0:	00090693          	mv	a3,s2
    800010f4:	f35ff06f          	j	80001028 <my_format+0x9c>
    800010f8:	0d979063          	bne	a5,s9,800011b8 <my_format+0x22c>
    800010fc:	0006a503          	lw	a0,0(a3)
    80001100:	01010593          	addi	a1,sp,16
    80001104:	000d0613          	mv	a2,s10
    80001108:	00868913          	addi	s2,a3,8
    8000110c:	00012623          	sw	zero,12(sp)
    80001110:	d45ff0ef          	jal	ra,80000e54 <uint2str_hex>
    80001114:	00c12583          	lw	a1,12(sp)
    80001118:	fcb058e3          	blez	a1,800010e8 <my_format+0x15c>
    8000111c:	fff5869b          	addiw	a3,a1,-1
    80001120:	02069693          	slli	a3,a3,0x20
    80001124:	01010793          	addi	a5,sp,16
    80001128:	0206d693          	srli	a3,a3,0x20
    8000112c:	00178613          	addi	a2,a5,1
    80001130:	009a8733          	add	a4,s5,s1
    80001134:	00d60633          	add	a2,a2,a3
    80001138:	0007c683          	lbu	a3,0(a5)
    8000113c:	00178793          	addi	a5,a5,1
    80001140:	00170713          	addi	a4,a4,1
    80001144:	fed70fa3          	sb	a3,-1(a4)
    80001148:	fec798e3          	bne	a5,a2,80001138 <my_format+0x1ac>
    8000114c:	009584bb          	addw	s1,a1,s1
    80001150:	0024041b          	addiw	s0,s0,2
    80001154:	00090693          	mv	a3,s2
    80001158:	ed1ff06f          	j	80001028 <my_format+0x9c>
    8000115c:	0006b903          	ld	s2,0(a3)
    80001160:	00868a13          	addi	s4,a3,8
    80001164:	00090513          	mv	a0,s2
    80001168:	0f8000ef          	jal	ra,80001260 <strlen>
    8000116c:	0005059b          	sext.w	a1,a0
    80001170:	00b12623          	sw	a1,12(sp)
    80001174:	02b05a63          	blez	a1,800011a8 <my_format+0x21c>
    80001178:	fff5051b          	addiw	a0,a0,-1
    8000117c:	02051513          	slli	a0,a0,0x20
    80001180:	00190613          	addi	a2,s2,1
    80001184:	02055513          	srli	a0,a0,0x20
    80001188:	00090793          	mv	a5,s2
    8000118c:	009a8733          	add	a4,s5,s1
    80001190:	00a60633          	add	a2,a2,a0
    80001194:	0007c683          	lbu	a3,0(a5)
    80001198:	00178793          	addi	a5,a5,1
    8000119c:	00170713          	addi	a4,a4,1
    800011a0:	fed70fa3          	sb	a3,-1(a4)
    800011a4:	fec798e3          	bne	a5,a2,80001194 <my_format+0x208>
    800011a8:	009584bb          	addw	s1,a1,s1
    800011ac:	0024041b          	addiw	s0,s0,2
    800011b0:	000a0693          	mv	a3,s4
    800011b4:	e75ff06f          	j	80001028 <my_format+0x9c>
    800011b8:	0014041b          	addiw	s0,s0,1
    800011bc:	e6dff06f          	j	80001028 <my_format+0x9c>

00000000800011c0 <printf>:
    800011c0:	f9010113          	addi	sp,sp,-112
    800011c4:	02813023          	sd	s0,32(sp)
    800011c8:	02113423          	sd	ra,40(sp)
    800011cc:	03010413          	addi	s0,sp,48
    800011d0:	00913c23          	sd	s1,24(sp)
    800011d4:	01213823          	sd	s2,16(sp)
    800011d8:	02f43423          	sd	a5,40(s0)
    800011dc:	00b43423          	sd	a1,8(s0)
    800011e0:	fffff7b7          	lui	a5,0xfffff
    800011e4:	00c43823          	sd	a2,16(s0)
    800011e8:	00d43c23          	sd	a3,24(s0)
    800011ec:	02e43023          	sd	a4,32(s0)
    800011f0:	03043823          	sd	a6,48(s0)
    800011f4:	03143c23          	sd	a7,56(s0)
    800011f8:	00f10133          	add	sp,sp,a5
    800011fc:	04050e63          	beqz	a0,80001258 <printf+0x98>
    80001200:	00840613          	addi	a2,s0,8
    80001204:	00050593          	mv	a1,a0
    80001208:	00001937          	lui	s2,0x1
    8000120c:	00010513          	mv	a0,sp
    80001210:	fcc43c23          	sd	a2,-40(s0)
    80001214:	00010493          	mv	s1,sp
    80001218:	d75ff0ef          	jal	ra,80000f8c <my_format>
    8000121c:	01210933          	add	s2,sp,s2
    80001220:	00c0006f          	j	8000122c <printf+0x6c>
    80001224:	bf5ff0ef          	jal	ra,80000e18 <putch>
    80001228:	01248863          	beq	s1,s2,80001238 <printf+0x78>
    8000122c:	0004c503          	lbu	a0,0(s1)
    80001230:	00148493          	addi	s1,s1,1
    80001234:	fe0518e3          	bnez	a0,80001224 <printf+0x64>
    80001238:	00000513          	li	a0,0
    8000123c:	fd040113          	addi	sp,s0,-48
    80001240:	02813083          	ld	ra,40(sp)
    80001244:	02013403          	ld	s0,32(sp)
    80001248:	01813483          	ld	s1,24(sp)
    8000124c:	01013903          	ld	s2,16(sp)
    80001250:	07010113          	addi	sp,sp,112
    80001254:	00008067          	ret
    80001258:	fff00513          	li	a0,-1
    8000125c:	fe1ff06f          	j	8000123c <printf+0x7c>

0000000080001260 <strlen>:
    80001260:	00054783          	lbu	a5,0(a0)
    80001264:	00050713          	mv	a4,a0
    80001268:	00000513          	li	a0,0
    8000126c:	00078c63          	beqz	a5,80001284 <strlen+0x24>
    80001270:	00150513          	addi	a0,a0,1
    80001274:	00a707b3          	add	a5,a4,a0
    80001278:	0007c783          	lbu	a5,0(a5) # fffffffffffff000 <_end+0xffffffff7fff2000>
    8000127c:	fe079ae3          	bnez	a5,80001270 <strlen+0x10>
    80001280:	00008067          	ret
    80001284:	00008067          	ret

0000000080001288 <strcpy>:
    80001288:	02050863          	beqz	a0,800012b8 <strcpy+0x30>
    8000128c:	02058463          	beqz	a1,800012b4 <strcpy+0x2c>
    80001290:	0005c783          	lbu	a5,0(a1)
    80001294:	00050713          	mv	a4,a0
    80001298:	02078063          	beqz	a5,800012b8 <strcpy+0x30>
    8000129c:	00f70023          	sb	a5,0(a4)
    800012a0:	0015c783          	lbu	a5,1(a1)
    800012a4:	00170713          	addi	a4,a4,1
    800012a8:	00158593          	addi	a1,a1,1
    800012ac:	fe0798e3          	bnez	a5,8000129c <strcpy+0x14>
    800012b0:	00008067          	ret
    800012b4:	00000513          	li	a0,0
    800012b8:	00008067          	ret

00000000800012bc <strcmp>:
    800012bc:	04050c63          	beqz	a0,80001314 <strcmp+0x58>
    800012c0:	04058a63          	beqz	a1,80001314 <strcmp+0x58>
    800012c4:	00054783          	lbu	a5,0(a0)
    800012c8:	00079e63          	bnez	a5,800012e4 <strcmp+0x28>
    800012cc:	03c0006f          	j	80001308 <strcmp+0x4c>
    800012d0:	00154783          	lbu	a5,1(a0)
    800012d4:	00158713          	addi	a4,a1,1
    800012d8:	00150513          	addi	a0,a0,1
    800012dc:	00078e63          	beqz	a5,800012f8 <strcmp+0x3c>
    800012e0:	00070593          	mv	a1,a4
    800012e4:	0005c703          	lbu	a4,0(a1)
    800012e8:	fef704e3          	beq	a4,a5,800012d0 <strcmp+0x14>
    800012ec:	0007851b          	sext.w	a0,a5
    800012f0:	40e5053b          	subw	a0,a0,a4
    800012f4:	00008067          	ret
    800012f8:	0015c703          	lbu	a4,1(a1)
    800012fc:	00000513          	li	a0,0
    80001300:	40e5053b          	subw	a0,a0,a4
    80001304:	00008067          	ret
    80001308:	0005c703          	lbu	a4,0(a1)
    8000130c:	00000513          	li	a0,0
    80001310:	fe1ff06f          	j	800012f0 <strcmp+0x34>
    80001314:	ff010113          	addi	sp,sp,-16
    80001318:	04100613          	li	a2,65
    8000131c:	00000597          	auipc	a1,0x0
    80001320:	62458593          	addi	a1,a1,1572 # 80001940 <str_hex+0x18>
    80001324:	00000517          	auipc	a0,0x0
    80001328:	66450513          	addi	a0,a0,1636 # 80001988 <str_hex+0x60>
    8000132c:	00113423          	sd	ra,8(sp)
    80001330:	e91ff0ef          	jal	ra,800011c0 <printf>
    80001334:	00100513          	li	a0,1
    80001338:	af1ff0ef          	jal	ra,80000e28 <halt>
