
/home/lin/ysyx_2022/ysyx-workbench/am-kernels/tests/cpu-tests/build/klib-tests-riscv64-nemu.elf:     file format elf64-littleriscv


Disassembly of section .text:

0000000080000000 <_start>:
    80000000:	00000413          	li	s0,0
    80000004:	00009117          	auipc	sp,0x9
    80000008:	ffc10113          	addi	sp,sp,-4 # 80009000 <_end>
    8000000c:	0f0000ef          	jal	ra,800000fc <_trm_init>

0000000080000010 <test_snprintf>:
    80000010:	f1010113          	addi	sp,sp,-240
    80000014:	00000517          	auipc	a0,0x0
    80000018:	76450513          	addi	a0,a0,1892 # 80000778 <_etext+0x4>
    8000001c:	0e113423          	sd	ra,232(sp)
    80000020:	0e813023          	sd	s0,224(sp)
    80000024:	0c913c23          	sd	s1,216(sp)
    80000028:	460000ef          	jal	ra,80000488 <printf>
    8000002c:	00000717          	auipc	a4,0x0
    80000030:	77470713          	addi	a4,a4,1908 # 800007a0 <_etext+0x2c>
    80000034:	00070693          	mv	a3,a4
    80000038:	00000617          	auipc	a2,0x0
    8000003c:	77860613          	addi	a2,a2,1912 # 800007b0 <_etext+0x3c>
    80000040:	00600593          	li	a1,6
    80000044:	00010513          	mv	a0,sp
    80000048:	6b8000ef          	jal	ra,80000700 <snprintf>
    8000004c:	00c00713          	li	a4,12
    80000050:	00c00693          	li	a3,12
    80000054:	00000617          	auipc	a2,0x0
    80000058:	76460613          	addi	a2,a2,1892 # 800007b8 <_etext+0x44>
    8000005c:	00050493          	mv	s1,a0
    80000060:	00600593          	li	a1,6
    80000064:	06810513          	addi	a0,sp,104
    80000068:	698000ef          	jal	ra,80000700 <snprintf>
    8000006c:	00050413          	mv	s0,a0
    80000070:	00048593          	mv	a1,s1
    80000074:	00000517          	auipc	a0,0x0
    80000078:	74c50513          	addi	a0,a0,1868 # 800007c0 <_etext+0x4c>
    8000007c:	40c000ef          	jal	ra,80000488 <printf>
    80000080:	00010593          	mv	a1,sp
    80000084:	00000517          	auipc	a0,0x0
    80000088:	74c50513          	addi	a0,a0,1868 # 800007d0 <_etext+0x5c>
    8000008c:	3fc000ef          	jal	ra,80000488 <printf>
    80000090:	00000517          	auipc	a0,0x0
    80000094:	75050513          	addi	a0,a0,1872 # 800007e0 <_etext+0x6c>
    80000098:	3f0000ef          	jal	ra,80000488 <printf>
    8000009c:	00040593          	mv	a1,s0
    800000a0:	00000517          	auipc	a0,0x0
    800000a4:	74850513          	addi	a0,a0,1864 # 800007e8 <_etext+0x74>
    800000a8:	3e0000ef          	jal	ra,80000488 <printf>
    800000ac:	06810593          	addi	a1,sp,104
    800000b0:	00000517          	auipc	a0,0x0
    800000b4:	74850513          	addi	a0,a0,1864 # 800007f8 <_etext+0x84>
    800000b8:	3d0000ef          	jal	ra,80000488 <printf>
    800000bc:	0e813083          	ld	ra,232(sp)
    800000c0:	0e013403          	ld	s0,224(sp)
    800000c4:	0d813483          	ld	s1,216(sp)
    800000c8:	0f010113          	addi	sp,sp,240
    800000cc:	00008067          	ret

00000000800000d0 <main>:
    800000d0:	ff010113          	addi	sp,sp,-16
    800000d4:	00113423          	sd	ra,8(sp)
    800000d8:	f39ff0ef          	jal	ra,80000010 <test_snprintf>
    800000dc:	00813083          	ld	ra,8(sp)
    800000e0:	00000513          	li	a0,0
    800000e4:	01010113          	addi	sp,sp,16
    800000e8:	00008067          	ret

00000000800000ec <putch>:
    800000ec:	00500793          	li	a5,5
    800000f0:	01d79793          	slli	a5,a5,0x1d
    800000f4:	3ea78c23          	sb	a0,1016(a5)
    800000f8:	00008067          	ret

00000000800000fc <_trm_init>:
    800000fc:	ff010113          	addi	sp,sp,-16
    80000100:	00000517          	auipc	a0,0x0
    80000104:	72050513          	addi	a0,a0,1824 # 80000820 <mainargs>
    80000108:	00113423          	sd	ra,8(sp)
    8000010c:	fc5ff0ef          	jal	ra,800000d0 <main>
    80000110:	00050513          	mv	a0,a0
    80000114:	00100073          	ebreak
    80000118:	0000006f          	j	80000118 <_trm_init+0x1c>

000000008000011c <uint2str_hex>:
    8000011c:	f9010113          	addi	sp,sp,-112
    80000120:	00810693          	addi	a3,sp,8
    80000124:	00000713          	li	a4,0
    80000128:	00000e17          	auipc	t3,0x0
    8000012c:	6e0e0e13          	addi	t3,t3,1760 # 80000808 <str_hex>
    80000130:	00f00313          	li	t1,15
    80000134:	00f57793          	andi	a5,a0,15
    80000138:	00fe07b3          	add	a5,t3,a5
    8000013c:	0007c803          	lbu	a6,0(a5)
    80000140:	0005079b          	sext.w	a5,a0
    80000144:	00070893          	mv	a7,a4
    80000148:	01068023          	sb	a6,0(a3)
    8000014c:	0045551b          	srliw	a0,a0,0x4
    80000150:	0017071b          	addiw	a4,a4,1
    80000154:	00168693          	addi	a3,a3,1
    80000158:	fcf36ee3          	bltu	t1,a5,80000134 <uint2str_hex+0x18>
    8000015c:	07070693          	addi	a3,a4,112
    80000160:	002686b3          	add	a3,a3,sp
    80000164:	fff70793          	addi	a5,a4,-1
    80000168:	00158813          	addi	a6,a1,1
    8000016c:	f8068c23          	sb	zero,-104(a3)
    80000170:	00810693          	addi	a3,sp,8
    80000174:	00f686b3          	add	a3,a3,a5
    80000178:	01180833          	add	a6,a6,a7
    8000017c:	00058793          	mv	a5,a1
    80000180:	0006c503          	lbu	a0,0(a3)
    80000184:	00178793          	addi	a5,a5,1
    80000188:	fff68693          	addi	a3,a3,-1
    8000018c:	fea78fa3          	sb	a0,-1(a5)
    80000190:	ff0798e3          	bne	a5,a6,80000180 <uint2str_hex+0x64>
    80000194:	00e585b3          	add	a1,a1,a4
    80000198:	00058023          	sb	zero,0(a1)
    8000019c:	00062783          	lw	a5,0(a2)
    800001a0:	00e787bb          	addw	a5,a5,a4
    800001a4:	00f62023          	sw	a5,0(a2)
    800001a8:	07010113          	addi	sp,sp,112
    800001ac:	00008067          	ret

00000000800001b0 <int2str>:
    800001b0:	f9010113          	addi	sp,sp,-112
    800001b4:	02055063          	bgez	a0,800001d4 <int2str+0x24>
    800001b8:	02d00793          	li	a5,45
    800001bc:	00f58023          	sb	a5,0(a1)
    800001c0:	00062783          	lw	a5,0(a2)
    800001c4:	40a0053b          	negw	a0,a0
    800001c8:	00158593          	addi	a1,a1,1
    800001cc:	0017879b          	addiw	a5,a5,1
    800001d0:	00f62023          	sw	a5,0(a2)
    800001d4:	00810693          	addi	a3,sp,8
    800001d8:	00000713          	li	a4,0
    800001dc:	00a00813          	li	a6,10
    800001e0:	030567bb          	remw	a5,a0,a6
    800001e4:	00168693          	addi	a3,a3,1
    800001e8:	00070893          	mv	a7,a4
    800001ec:	0017071b          	addiw	a4,a4,1
    800001f0:	0305453b          	divw	a0,a0,a6
    800001f4:	0307879b          	addiw	a5,a5,48
    800001f8:	fef68fa3          	sb	a5,-1(a3)
    800001fc:	fe0512e3          	bnez	a0,800001e0 <int2str+0x30>
    80000200:	07070693          	addi	a3,a4,112
    80000204:	002686b3          	add	a3,a3,sp
    80000208:	fff70793          	addi	a5,a4,-1
    8000020c:	00158813          	addi	a6,a1,1
    80000210:	f8068c23          	sb	zero,-104(a3)
    80000214:	00810693          	addi	a3,sp,8
    80000218:	00f686b3          	add	a3,a3,a5
    8000021c:	01180833          	add	a6,a6,a7
    80000220:	00058793          	mv	a5,a1
    80000224:	0006c503          	lbu	a0,0(a3)
    80000228:	00178793          	addi	a5,a5,1
    8000022c:	fff68693          	addi	a3,a3,-1
    80000230:	fea78fa3          	sb	a0,-1(a5)
    80000234:	fef818e3          	bne	a6,a5,80000224 <int2str+0x74>
    80000238:	00e585b3          	add	a1,a1,a4
    8000023c:	00058023          	sb	zero,0(a1)
    80000240:	00062783          	lw	a5,0(a2)
    80000244:	00e787bb          	addw	a5,a5,a4
    80000248:	00f62023          	sw	a5,0(a2)
    8000024c:	07010113          	addi	sp,sp,112
    80000250:	00008067          	ret

0000000080000254 <my_format>:
    80000254:	f9010113          	addi	sp,sp,-112
    80000258:	03513c23          	sd	s5,56(sp)
    8000025c:	06113423          	sd	ra,104(sp)
    80000260:	06813023          	sd	s0,96(sp)
    80000264:	04913c23          	sd	s1,88(sp)
    80000268:	05213823          	sd	s2,80(sp)
    8000026c:	05313423          	sd	s3,72(sp)
    80000270:	05413023          	sd	s4,64(sp)
    80000274:	03613823          	sd	s6,48(sp)
    80000278:	03713423          	sd	s7,40(sp)
    8000027c:	03813023          	sd	s8,32(sp)
    80000280:	01913c23          	sd	s9,24(sp)
    80000284:	01a13823          	sd	s10,16(sp)
    80000288:	fffff2b7          	lui	t0,0xfffff
    8000028c:	0005c783          	lbu	a5,0(a1)
    80000290:	00510133          	add	sp,sp,t0
    80000294:	00012623          	sw	zero,12(sp)
    80000298:	00050a93          	mv	s5,a0
    8000029c:	06078463          	beqz	a5,80000304 <my_format+0xb0>
    800002a0:	fffffd37          	lui	s10,0xfffff
    800002a4:	00060693          	mv	a3,a2
    800002a8:	00001637          	lui	a2,0x1
    800002ac:	ffcd0d13          	addi	s10,s10,-4 # ffffffffffffeffc <_end+0xffffffff7fff5ffc>
    800002b0:	01060613          	addi	a2,a2,16 # 1010 <_entry_offset+0x1010>
    800002b4:	01a60633          	add	a2,a2,s10
    800002b8:	00058993          	mv	s3,a1
    800002bc:	00000493          	li	s1,0
    800002c0:	00000413          	li	s0,0
    800002c4:	00000713          	li	a4,0
    800002c8:	02500b13          	li	s6,37
    800002cc:	07300b93          	li	s7,115
    800002d0:	07800c93          	li	s9,120
    800002d4:	00260d33          	add	s10,a2,sp
    800002d8:	06400c13          	li	s8,100
    800002dc:	07678663          	beq	a5,s6,80000348 <my_format+0xf4>
    800002e0:	009a8733          	add	a4,s5,s1
    800002e4:	00f70023          	sb	a5,0(a4)
    800002e8:	0014849b          	addiw	s1,s1,1
    800002ec:	0014041b          	addiw	s0,s0,1
    800002f0:	008987b3          	add	a5,s3,s0
    800002f4:	0007c783          	lbu	a5,0(a5)
    800002f8:	00040713          	mv	a4,s0
    800002fc:	fe0790e3          	bnez	a5,800002dc <my_format+0x88>
    80000300:	009a8ab3          	add	s5,s5,s1
    80000304:	000a8023          	sb	zero,0(s5)
    80000308:	000012b7          	lui	t0,0x1
    8000030c:	00510133          	add	sp,sp,t0
    80000310:	06813083          	ld	ra,104(sp)
    80000314:	06013403          	ld	s0,96(sp)
    80000318:	05813483          	ld	s1,88(sp)
    8000031c:	05013903          	ld	s2,80(sp)
    80000320:	04813983          	ld	s3,72(sp)
    80000324:	04013a03          	ld	s4,64(sp)
    80000328:	03813a83          	ld	s5,56(sp)
    8000032c:	03013b03          	ld	s6,48(sp)
    80000330:	02813b83          	ld	s7,40(sp)
    80000334:	02013c03          	ld	s8,32(sp)
    80000338:	01813c83          	ld	s9,24(sp)
    8000033c:	01013d03          	ld	s10,16(sp)
    80000340:	07010113          	addi	sp,sp,112
    80000344:	00008067          	ret
    80000348:	00e98733          	add	a4,s3,a4
    8000034c:	00174783          	lbu	a5,1(a4)
    80000350:	0d778a63          	beq	a5,s7,80000424 <my_format+0x1d0>
    80000354:	06fbe663          	bltu	s7,a5,800003c0 <my_format+0x16c>
    80000358:	fa0788e3          	beqz	a5,80000308 <my_format+0xb4>
    8000035c:	13879263          	bne	a5,s8,80000480 <my_format+0x22c>
    80000360:	0006a503          	lw	a0,0(a3)
    80000364:	01010593          	addi	a1,sp,16
    80000368:	000d0613          	mv	a2,s10
    8000036c:	00868913          	addi	s2,a3,8
    80000370:	00012623          	sw	zero,12(sp)
    80000374:	e3dff0ef          	jal	ra,800001b0 <int2str>
    80000378:	00c12583          	lw	a1,12(sp)
    8000037c:	02b05a63          	blez	a1,800003b0 <my_format+0x15c>
    80000380:	fff5861b          	addiw	a2,a1,-1
    80000384:	02061613          	slli	a2,a2,0x20
    80000388:	01010793          	addi	a5,sp,16
    8000038c:	02065613          	srli	a2,a2,0x20
    80000390:	00178693          	addi	a3,a5,1
    80000394:	009a8733          	add	a4,s5,s1
    80000398:	00d60633          	add	a2,a2,a3
    8000039c:	0007c683          	lbu	a3,0(a5)
    800003a0:	00178793          	addi	a5,a5,1
    800003a4:	00170713          	addi	a4,a4,1
    800003a8:	fed70fa3          	sb	a3,-1(a4)
    800003ac:	fec798e3          	bne	a5,a2,8000039c <my_format+0x148>
    800003b0:	009584bb          	addw	s1,a1,s1
    800003b4:	0024041b          	addiw	s0,s0,2
    800003b8:	00090693          	mv	a3,s2
    800003bc:	f35ff06f          	j	800002f0 <my_format+0x9c>
    800003c0:	0d979063          	bne	a5,s9,80000480 <my_format+0x22c>
    800003c4:	0006a503          	lw	a0,0(a3)
    800003c8:	01010593          	addi	a1,sp,16
    800003cc:	000d0613          	mv	a2,s10
    800003d0:	00868913          	addi	s2,a3,8
    800003d4:	00012623          	sw	zero,12(sp)
    800003d8:	d45ff0ef          	jal	ra,8000011c <uint2str_hex>
    800003dc:	00c12583          	lw	a1,12(sp)
    800003e0:	fcb058e3          	blez	a1,800003b0 <my_format+0x15c>
    800003e4:	fff5869b          	addiw	a3,a1,-1
    800003e8:	02069693          	slli	a3,a3,0x20
    800003ec:	01010793          	addi	a5,sp,16
    800003f0:	0206d693          	srli	a3,a3,0x20
    800003f4:	00178613          	addi	a2,a5,1
    800003f8:	009a8733          	add	a4,s5,s1
    800003fc:	00d60633          	add	a2,a2,a3
    80000400:	0007c683          	lbu	a3,0(a5)
    80000404:	00178793          	addi	a5,a5,1
    80000408:	00170713          	addi	a4,a4,1
    8000040c:	fed70fa3          	sb	a3,-1(a4)
    80000410:	fec798e3          	bne	a5,a2,80000400 <my_format+0x1ac>
    80000414:	009584bb          	addw	s1,a1,s1
    80000418:	0024041b          	addiw	s0,s0,2
    8000041c:	00090693          	mv	a3,s2
    80000420:	ed1ff06f          	j	800002f0 <my_format+0x9c>
    80000424:	0006b903          	ld	s2,0(a3)
    80000428:	00868a13          	addi	s4,a3,8
    8000042c:	00090513          	mv	a0,s2
    80000430:	31c000ef          	jal	ra,8000074c <strlen>
    80000434:	0005059b          	sext.w	a1,a0
    80000438:	00b12623          	sw	a1,12(sp)
    8000043c:	02b05a63          	blez	a1,80000470 <my_format+0x21c>
    80000440:	fff5051b          	addiw	a0,a0,-1
    80000444:	02051513          	slli	a0,a0,0x20
    80000448:	00190613          	addi	a2,s2,1
    8000044c:	02055513          	srli	a0,a0,0x20
    80000450:	00090793          	mv	a5,s2
    80000454:	009a8733          	add	a4,s5,s1
    80000458:	00a60633          	add	a2,a2,a0
    8000045c:	0007c683          	lbu	a3,0(a5)
    80000460:	00178793          	addi	a5,a5,1
    80000464:	00170713          	addi	a4,a4,1
    80000468:	fed70fa3          	sb	a3,-1(a4)
    8000046c:	fec798e3          	bne	a5,a2,8000045c <my_format+0x208>
    80000470:	009584bb          	addw	s1,a1,s1
    80000474:	0024041b          	addiw	s0,s0,2
    80000478:	000a0693          	mv	a3,s4
    8000047c:	e75ff06f          	j	800002f0 <my_format+0x9c>
    80000480:	0014041b          	addiw	s0,s0,1
    80000484:	e6dff06f          	j	800002f0 <my_format+0x9c>

0000000080000488 <printf>:
    80000488:	f9010113          	addi	sp,sp,-112
    8000048c:	02813023          	sd	s0,32(sp)
    80000490:	02113423          	sd	ra,40(sp)
    80000494:	03010413          	addi	s0,sp,48
    80000498:	00913c23          	sd	s1,24(sp)
    8000049c:	01213823          	sd	s2,16(sp)
    800004a0:	02f43423          	sd	a5,40(s0)
    800004a4:	00b43423          	sd	a1,8(s0)
    800004a8:	fffff7b7          	lui	a5,0xfffff
    800004ac:	00c43823          	sd	a2,16(s0)
    800004b0:	00d43c23          	sd	a3,24(s0)
    800004b4:	02e43023          	sd	a4,32(s0)
    800004b8:	03043823          	sd	a6,48(s0)
    800004bc:	03143c23          	sd	a7,56(s0)
    800004c0:	00f10133          	add	sp,sp,a5
    800004c4:	04050e63          	beqz	a0,80000520 <printf+0x98>
    800004c8:	00840613          	addi	a2,s0,8
    800004cc:	00050593          	mv	a1,a0
    800004d0:	00001937          	lui	s2,0x1
    800004d4:	00010513          	mv	a0,sp
    800004d8:	fcc43c23          	sd	a2,-40(s0)
    800004dc:	00010493          	mv	s1,sp
    800004e0:	d75ff0ef          	jal	ra,80000254 <my_format>
    800004e4:	01210933          	add	s2,sp,s2
    800004e8:	00c0006f          	j	800004f4 <printf+0x6c>
    800004ec:	c01ff0ef          	jal	ra,800000ec <putch>
    800004f0:	01248863          	beq	s1,s2,80000500 <printf+0x78>
    800004f4:	0004c503          	lbu	a0,0(s1)
    800004f8:	00148493          	addi	s1,s1,1
    800004fc:	fe0518e3          	bnez	a0,800004ec <printf+0x64>
    80000500:	00000513          	li	a0,0
    80000504:	fd040113          	addi	sp,s0,-48
    80000508:	02813083          	ld	ra,40(sp)
    8000050c:	02013403          	ld	s0,32(sp)
    80000510:	01813483          	ld	s1,24(sp)
    80000514:	01013903          	ld	s2,16(sp)
    80000518:	07010113          	addi	sp,sp,112
    8000051c:	00008067          	ret
    80000520:	fff00513          	li	a0,-1
    80000524:	fe1ff06f          	j	80000504 <printf+0x7c>

0000000080000528 <my_format_2>:
    80000528:	f9010113          	addi	sp,sp,-112
    8000052c:	05313423          	sd	s3,72(sp)
    80000530:	03513c23          	sd	s5,56(sp)
    80000534:	06113423          	sd	ra,104(sp)
    80000538:	06813023          	sd	s0,96(sp)
    8000053c:	04913c23          	sd	s1,88(sp)
    80000540:	05213823          	sd	s2,80(sp)
    80000544:	05413023          	sd	s4,64(sp)
    80000548:	03613823          	sd	s6,48(sp)
    8000054c:	03713423          	sd	s7,40(sp)
    80000550:	03813023          	sd	s8,32(sp)
    80000554:	01913c23          	sd	s9,24(sp)
    80000558:	01a13823          	sd	s10,16(sp)
    8000055c:	fffff2b7          	lui	t0,0xfffff
    80000560:	00064783          	lbu	a5,0(a2)
    80000564:	00510133          	add	sp,sp,t0
    80000568:	00012623          	sw	zero,12(sp)
    8000056c:	00050a93          	mv	s5,a0
    80000570:	00058993          	mv	s3,a1
    80000574:	18078263          	beqz	a5,800006f8 <my_format_2+0x1d0>
    80000578:	00060a13          	mv	s4,a2
    8000057c:	fffffcb7          	lui	s9,0xfffff
    80000580:	00001637          	lui	a2,0x1
    80000584:	ffcc8c93          	addi	s9,s9,-4 # ffffffffffffeffc <_end+0xffffffff7fff5ffc>
    80000588:	01060613          	addi	a2,a2,16 # 1010 <_entry_offset+0x1010>
    8000058c:	01960633          	add	a2,a2,s9
    80000590:	00000913          	li	s2,0
    80000594:	00000413          	li	s0,0
    80000598:	00000713          	li	a4,0
    8000059c:	02500b13          	li	s6,37
    800005a0:	06400c13          	li	s8,100
    800005a4:	00260cb3          	add	s9,a2,sp
    800005a8:	07300b93          	li	s7,115
    800005ac:	07678a63          	beq	a5,s6,80000620 <my_format_2+0xf8>
    800005b0:	012a8733          	add	a4,s5,s2
    800005b4:	00f70023          	sb	a5,0(a4)
    800005b8:	0019091b          	addiw	s2,s2,1 # 1001 <_entry_offset+0x1001>
    800005bc:	0014041b          	addiw	s0,s0,1
    800005c0:	008a07b3          	add	a5,s4,s0
    800005c4:	0007c783          	lbu	a5,0(a5) # fffffffffffff000 <_end+0xffffffff7fff6000>
    800005c8:	00040713          	mv	a4,s0
    800005cc:	fe0790e3          	bnez	a5,800005ac <my_format_2+0x84>
    800005d0:	012a8ab3          	add	s5,s5,s2
    800005d4:	4089093b          	subw	s2,s2,s0
    800005d8:	000a8023          	sb	zero,0(s5)
    800005dc:	0129b023          	sd	s2,0(s3)
    800005e0:	000012b7          	lui	t0,0x1
    800005e4:	00510133          	add	sp,sp,t0
    800005e8:	06813083          	ld	ra,104(sp)
    800005ec:	06013403          	ld	s0,96(sp)
    800005f0:	05813483          	ld	s1,88(sp)
    800005f4:	05013903          	ld	s2,80(sp)
    800005f8:	04813983          	ld	s3,72(sp)
    800005fc:	04013a03          	ld	s4,64(sp)
    80000600:	03813a83          	ld	s5,56(sp)
    80000604:	03013b03          	ld	s6,48(sp)
    80000608:	02813b83          	ld	s7,40(sp)
    8000060c:	02013c03          	ld	s8,32(sp)
    80000610:	01813c83          	ld	s9,24(sp)
    80000614:	01013d03          	ld	s10,16(sp)
    80000618:	07010113          	addi	sp,sp,112
    8000061c:	00008067          	ret
    80000620:	00ea0733          	add	a4,s4,a4
    80000624:	00174783          	lbu	a5,1(a4)
    80000628:	07878863          	beq	a5,s8,80000698 <my_format_2+0x170>
    8000062c:	01778863          	beq	a5,s7,8000063c <my_format_2+0x114>
    80000630:	fa0788e3          	beqz	a5,800005e0 <my_format_2+0xb8>
    80000634:	0014041b          	addiw	s0,s0,1
    80000638:	f89ff06f          	j	800005c0 <my_format_2+0x98>
    8000063c:	0006b483          	ld	s1,0(a3)
    80000640:	00868d13          	addi	s10,a3,8
    80000644:	00048513          	mv	a0,s1
    80000648:	104000ef          	jal	ra,8000074c <strlen>
    8000064c:	0005069b          	sext.w	a3,a0
    80000650:	00d12623          	sw	a3,12(sp)
    80000654:	02d05a63          	blez	a3,80000688 <my_format_2+0x160>
    80000658:	fff5059b          	addiw	a1,a0,-1
    8000065c:	02059593          	slli	a1,a1,0x20
    80000660:	0205d593          	srli	a1,a1,0x20
    80000664:	00148613          	addi	a2,s1,1
    80000668:	00048793          	mv	a5,s1
    8000066c:	012a8733          	add	a4,s5,s2
    80000670:	00c585b3          	add	a1,a1,a2
    80000674:	0007c503          	lbu	a0,0(a5)
    80000678:	00178793          	addi	a5,a5,1
    8000067c:	00170713          	addi	a4,a4,1
    80000680:	fea70fa3          	sb	a0,-1(a4)
    80000684:	fef598e3          	bne	a1,a5,80000674 <my_format_2+0x14c>
    80000688:	0126893b          	addw	s2,a3,s2
    8000068c:	0024041b          	addiw	s0,s0,2
    80000690:	000d0693          	mv	a3,s10
    80000694:	f2dff06f          	j	800005c0 <my_format_2+0x98>
    80000698:	0006a503          	lw	a0,0(a3)
    8000069c:	000c8613          	mv	a2,s9
    800006a0:	01010593          	addi	a1,sp,16
    800006a4:	00868493          	addi	s1,a3,8
    800006a8:	00012623          	sw	zero,12(sp)
    800006ac:	b05ff0ef          	jal	ra,800001b0 <int2str>
    800006b0:	00c12603          	lw	a2,12(sp)
    800006b4:	02c05a63          	blez	a2,800006e8 <my_format_2+0x1c0>
    800006b8:	fff6069b          	addiw	a3,a2,-1
    800006bc:	02069693          	slli	a3,a3,0x20
    800006c0:	01010793          	addi	a5,sp,16
    800006c4:	0206d693          	srli	a3,a3,0x20
    800006c8:	00178593          	addi	a1,a5,1
    800006cc:	012a8733          	add	a4,s5,s2
    800006d0:	00b686b3          	add	a3,a3,a1
    800006d4:	0007c583          	lbu	a1,0(a5)
    800006d8:	00178793          	addi	a5,a5,1
    800006dc:	00170713          	addi	a4,a4,1
    800006e0:	feb70fa3          	sb	a1,-1(a4)
    800006e4:	fed798e3          	bne	a5,a3,800006d4 <my_format_2+0x1ac>
    800006e8:	0126093b          	addw	s2,a2,s2
    800006ec:	0024041b          	addiw	s0,s0,2
    800006f0:	00048693          	mv	a3,s1
    800006f4:	ecdff06f          	j	800005c0 <my_format_2+0x98>
    800006f8:	00000913          	li	s2,0
    800006fc:	eddff06f          	j	800005d8 <my_format_2+0xb0>

0000000080000700 <snprintf>:
    80000700:	fa010113          	addi	sp,sp,-96
    80000704:	02113423          	sd	ra,40(sp)
    80000708:	00b13423          	sd	a1,8(sp)
    8000070c:	02d13c23          	sd	a3,56(sp)
    80000710:	04e13023          	sd	a4,64(sp)
    80000714:	04f13423          	sd	a5,72(sp)
    80000718:	05013823          	sd	a6,80(sp)
    8000071c:	05113c23          	sd	a7,88(sp)
    80000720:	02060263          	beqz	a2,80000744 <snprintf+0x44>
    80000724:	03810693          	addi	a3,sp,56
    80000728:	00810593          	addi	a1,sp,8
    8000072c:	00d13c23          	sd	a3,24(sp)
    80000730:	df9ff0ef          	jal	ra,80000528 <my_format_2>
    80000734:	00812503          	lw	a0,8(sp)
    80000738:	02813083          	ld	ra,40(sp)
    8000073c:	06010113          	addi	sp,sp,96
    80000740:	00008067          	ret
    80000744:	fff00513          	li	a0,-1
    80000748:	ff1ff06f          	j	80000738 <snprintf+0x38>

000000008000074c <strlen>:
    8000074c:	00054783          	lbu	a5,0(a0)
    80000750:	00050713          	mv	a4,a0
    80000754:	00000513          	li	a0,0
    80000758:	00078c63          	beqz	a5,80000770 <strlen+0x24>
    8000075c:	00150513          	addi	a0,a0,1
    80000760:	00a707b3          	add	a5,a4,a0
    80000764:	0007c783          	lbu	a5,0(a5)
    80000768:	fe079ae3          	bnez	a5,8000075c <strlen+0x10>
    8000076c:	00008067          	ret
    80000770:	00008067          	ret
