
/home/lin/ysyx_2022/ysyx-workbench/am-kernels/tests/cpu-tests/build/string-riscv64-nemu.elf:     file format elf64-littleriscv


Disassembly of section .text:

0000000080000000 <_start>:
    80000000:	00000413          	li	s0,0
    80000004:	00009117          	auipc	sp,0x9
    80000008:	ffc10113          	addi	sp,sp,-4 # 80009000 <_end>
    8000000c:	138000ef          	jal	ra,80000144 <_trm_init>

0000000080000010 <check>:
    80000010:	00050463          	beqz	a0,80000018 <check+0x8>
    80000014:	00008067          	ret
    80000018:	ff010113          	addi	sp,sp,-16
    8000001c:	00100513          	li	a0,1
    80000020:	00113423          	sd	ra,8(sp)
    80000024:	114000ef          	jal	ra,80000138 <halt>

0000000080000028 <main>:
    80000028:	fe010113          	addi	sp,sp,-32
    8000002c:	00813823          	sd	s0,16(sp)
    80000030:	00001417          	auipc	s0,0x1
    80000034:	84840413          	addi	s0,s0,-1976 # 80000878 <s>
    80000038:	01043583          	ld	a1,16(s0)
    8000003c:	00043503          	ld	a0,0(s0)
    80000040:	00113c23          	sd	ra,24(sp)
    80000044:	00913423          	sd	s1,8(sp)
    80000048:	1c8000ef          	jal	ra,80000210 <strcmp>
    8000004c:	00153513          	seqz	a0,a0
    80000050:	fc1ff0ef          	jal	ra,80000010 <check>
    80000054:	00843583          	ld	a1,8(s0)
    80000058:	00043503          	ld	a0,0(s0)
    8000005c:	00001497          	auipc	s1,0x1
    80000060:	85448493          	addi	s1,s1,-1964 # 800008b0 <str>
    80000064:	1ac000ef          	jal	ra,80000210 <strcmp>
    80000068:	01f5551b          	srliw	a0,a0,0x1f
    8000006c:	fa5ff0ef          	jal	ra,80000010 <check>
    80000070:	00843583          	ld	a1,8(s0)
    80000074:	00043503          	ld	a0,0(s0)
    80000078:	00158593          	addi	a1,a1,1
    8000007c:	00150513          	addi	a0,a0,1
    80000080:	190000ef          	jal	ra,80000210 <strcmp>
    80000084:	01f5551b          	srliw	a0,a0,0x1f
    80000088:	f89ff0ef          	jal	ra,80000010 <check>
    8000008c:	00843583          	ld	a1,8(s0)
    80000090:	00043503          	ld	a0,0(s0)
    80000094:	00258593          	addi	a1,a1,2
    80000098:	00250513          	addi	a0,a0,2
    8000009c:	174000ef          	jal	ra,80000210 <strcmp>
    800000a0:	01f5551b          	srliw	a0,a0,0x1f
    800000a4:	f6dff0ef          	jal	ra,80000010 <check>
    800000a8:	00843583          	ld	a1,8(s0)
    800000ac:	00043503          	ld	a0,0(s0)
    800000b0:	00358593          	addi	a1,a1,3
    800000b4:	00350513          	addi	a0,a0,3
    800000b8:	158000ef          	jal	ra,80000210 <strcmp>
    800000bc:	01f5551b          	srliw	a0,a0,0x1f
    800000c0:	f51ff0ef          	jal	ra,80000010 <check>
    800000c4:	00000597          	auipc	a1,0x0
    800000c8:	7e458593          	addi	a1,a1,2020 # 800008a8 <str1>
    800000cc:	00048513          	mv	a0,s1
    800000d0:	0bc000ef          	jal	ra,8000018c <strcpy>
    800000d4:	01843583          	ld	a1,24(s0)
    800000d8:	0e8000ef          	jal	ra,800001c0 <strcat>
    800000dc:	02043583          	ld	a1,32(s0)
    800000e0:	130000ef          	jal	ra,80000210 <strcmp>
    800000e4:	00153513          	seqz	a0,a0
    800000e8:	f29ff0ef          	jal	ra,80000010 <check>
    800000ec:	00500613          	li	a2,5
    800000f0:	02300593          	li	a1,35
    800000f4:	00048513          	mv	a0,s1
    800000f8:	198000ef          	jal	ra,80000290 <memset>
    800000fc:	02843583          	ld	a1,40(s0)
    80000100:	00500613          	li	a2,5
    80000104:	1dc000ef          	jal	ra,800002e0 <memcmp>
    80000108:	00153513          	seqz	a0,a0
    8000010c:	f05ff0ef          	jal	ra,80000010 <check>
    80000110:	01813083          	ld	ra,24(sp)
    80000114:	01013403          	ld	s0,16(sp)
    80000118:	00813483          	ld	s1,8(sp)
    8000011c:	00000513          	li	a0,0
    80000120:	02010113          	addi	sp,sp,32
    80000124:	00008067          	ret

0000000080000128 <putch>:
    80000128:	00500793          	li	a5,5
    8000012c:	01d79793          	slli	a5,a5,0x1d
    80000130:	3ea78c23          	sb	a0,1016(a5)
    80000134:	00008067          	ret

0000000080000138 <halt>:
    80000138:	00050513          	mv	a0,a0
    8000013c:	00100073          	ebreak
    80000140:	0000006f          	j	80000140 <halt+0x8>

0000000080000144 <_trm_init>:
    80000144:	ff010113          	addi	sp,sp,-16
    80000148:	00000517          	auipc	a0,0x0
    8000014c:	72850513          	addi	a0,a0,1832 # 80000870 <mainargs>
    80000150:	00113423          	sd	ra,8(sp)
    80000154:	ed5ff0ef          	jal	ra,80000028 <main>
    80000158:	00050513          	mv	a0,a0
    8000015c:	00100073          	ebreak
    80000160:	0000006f          	j	80000160 <_trm_init+0x1c>

0000000080000164 <strlen>:
    80000164:	00054783          	lbu	a5,0(a0)
    80000168:	00050713          	mv	a4,a0
    8000016c:	00000513          	li	a0,0
    80000170:	00078c63          	beqz	a5,80000188 <strlen+0x24>
    80000174:	00150513          	addi	a0,a0,1
    80000178:	00a707b3          	add	a5,a4,a0
    8000017c:	0007c783          	lbu	a5,0(a5)
    80000180:	fe079ae3          	bnez	a5,80000174 <strlen+0x10>
    80000184:	00008067          	ret
    80000188:	00008067          	ret

000000008000018c <strcpy>:
    8000018c:	02050863          	beqz	a0,800001bc <strcpy+0x30>
    80000190:	02058463          	beqz	a1,800001b8 <strcpy+0x2c>
    80000194:	0005c783          	lbu	a5,0(a1)
    80000198:	00050713          	mv	a4,a0
    8000019c:	02078063          	beqz	a5,800001bc <strcpy+0x30>
    800001a0:	00f70023          	sb	a5,0(a4)
    800001a4:	0015c783          	lbu	a5,1(a1)
    800001a8:	00170713          	addi	a4,a4,1
    800001ac:	00158593          	addi	a1,a1,1
    800001b0:	fe0798e3          	bnez	a5,800001a0 <strcpy+0x14>
    800001b4:	00008067          	ret
    800001b8:	00000513          	li	a0,0
    800001bc:	00008067          	ret

00000000800001c0 <strcat>:
    800001c0:	04050263          	beqz	a0,80000204 <strcat+0x44>
    800001c4:	02058e63          	beqz	a1,80000200 <strcat+0x40>
    800001c8:	00054783          	lbu	a5,0(a0)
    800001cc:	02078e63          	beqz	a5,80000208 <strcat+0x48>
    800001d0:	00050793          	mv	a5,a0
    800001d4:	0017c703          	lbu	a4,1(a5)
    800001d8:	00178793          	addi	a5,a5,1
    800001dc:	fe071ce3          	bnez	a4,800001d4 <strcat+0x14>
    800001e0:	0005c703          	lbu	a4,0(a1)
    800001e4:	02070063          	beqz	a4,80000204 <strcat+0x44>
    800001e8:	00e78023          	sb	a4,0(a5)
    800001ec:	0015c703          	lbu	a4,1(a1)
    800001f0:	00178793          	addi	a5,a5,1
    800001f4:	00158593          	addi	a1,a1,1
    800001f8:	fe0718e3          	bnez	a4,800001e8 <strcat+0x28>
    800001fc:	00008067          	ret
    80000200:	00000513          	li	a0,0
    80000204:	00008067          	ret
    80000208:	00050793          	mv	a5,a0
    8000020c:	fd5ff06f          	j	800001e0 <strcat+0x20>

0000000080000210 <strcmp>:
    80000210:	04050c63          	beqz	a0,80000268 <strcmp+0x58>
    80000214:	04058a63          	beqz	a1,80000268 <strcmp+0x58>
    80000218:	00054783          	lbu	a5,0(a0)
    8000021c:	00079e63          	bnez	a5,80000238 <strcmp+0x28>
    80000220:	03c0006f          	j	8000025c <strcmp+0x4c>
    80000224:	00154783          	lbu	a5,1(a0)
    80000228:	00158713          	addi	a4,a1,1
    8000022c:	00150513          	addi	a0,a0,1
    80000230:	00078e63          	beqz	a5,8000024c <strcmp+0x3c>
    80000234:	00070593          	mv	a1,a4
    80000238:	0005c703          	lbu	a4,0(a1)
    8000023c:	fef704e3          	beq	a4,a5,80000224 <strcmp+0x14>
    80000240:	0007851b          	sext.w	a0,a5
    80000244:	40e5053b          	subw	a0,a0,a4
    80000248:	00008067          	ret
    8000024c:	0015c703          	lbu	a4,1(a1)
    80000250:	00000513          	li	a0,0
    80000254:	40e5053b          	subw	a0,a0,a4
    80000258:	00008067          	ret
    8000025c:	0005c703          	lbu	a4,0(a1)
    80000260:	00000513          	li	a0,0
    80000264:	fe1ff06f          	j	80000244 <strcmp+0x34>
    80000268:	ff010113          	addi	sp,sp,-16
    8000026c:	04100613          	li	a2,65
    80000270:	00000597          	auipc	a1,0x0
    80000274:	58058593          	addi	a1,a1,1408 # 800007f0 <_etext+0x7c>
    80000278:	00000517          	auipc	a0,0x0
    8000027c:	5c050513          	addi	a0,a0,1472 # 80000838 <_etext+0xc4>
    80000280:	00113423          	sd	ra,8(sp)
    80000284:	450000ef          	jal	ra,800006d4 <printf>
    80000288:	00100513          	li	a0,1
    8000028c:	eadff0ef          	jal	ra,80000138 <halt>

0000000080000290 <memset>:
    80000290:	02050463          	beqz	a0,800002b8 <memset+0x28>
    80000294:	0ff5f593          	zext.b	a1,a1
    80000298:	00c50733          	add	a4,a0,a2
    8000029c:	00050793          	mv	a5,a0
    800002a0:	00060a63          	beqz	a2,800002b4 <memset+0x24>
    800002a4:	00b78023          	sb	a1,0(a5)
    800002a8:	00178793          	addi	a5,a5,1
    800002ac:	fee79ce3          	bne	a5,a4,800002a4 <memset+0x14>
    800002b0:	00008067          	ret
    800002b4:	00008067          	ret
    800002b8:	ff010113          	addi	sp,sp,-16
    800002bc:	06000613          	li	a2,96
    800002c0:	00000597          	auipc	a1,0x0
    800002c4:	53058593          	addi	a1,a1,1328 # 800007f0 <_etext+0x7c>
    800002c8:	00000517          	auipc	a0,0x0
    800002cc:	57050513          	addi	a0,a0,1392 # 80000838 <_etext+0xc4>
    800002d0:	00113423          	sd	ra,8(sp)
    800002d4:	400000ef          	jal	ra,800006d4 <printf>
    800002d8:	00100513          	li	a0,1
    800002dc:	e5dff0ef          	jal	ra,80000138 <halt>

00000000800002e0 <memcmp>:
    800002e0:	06050063          	beqz	a0,80000340 <memcmp+0x60>
    800002e4:	04058e63          	beqz	a1,80000340 <memcmp+0x60>
    800002e8:	fff60613          	addi	a2,a2,-1
    800002ec:	00058793          	mv	a5,a1
    800002f0:	00c58833          	add	a6,a1,a2
    800002f4:	00061e63          	bnez	a2,80000310 <memcmp+0x30>
    800002f8:	03c0006f          	j	80000334 <memcmp+0x54>
    800002fc:	00178713          	addi	a4,a5,1
    80000300:	00150693          	addi	a3,a0,1
    80000304:	03070063          	beq	a4,a6,80000324 <memcmp+0x44>
    80000308:	00070793          	mv	a5,a4
    8000030c:	00068513          	mv	a0,a3
    80000310:	00054683          	lbu	a3,0(a0)
    80000314:	0007c703          	lbu	a4,0(a5)
    80000318:	fee682e3          	beq	a3,a4,800002fc <memcmp+0x1c>
    8000031c:	40e6853b          	subw	a0,a3,a4
    80000320:	00008067          	ret
    80000324:	00154683          	lbu	a3,1(a0)
    80000328:	0017c703          	lbu	a4,1(a5)
    8000032c:	40e6853b          	subw	a0,a3,a4
    80000330:	00008067          	ret
    80000334:	00054683          	lbu	a3,0(a0)
    80000338:	0005c703          	lbu	a4,0(a1)
    8000033c:	fe1ff06f          	j	8000031c <memcmp+0x3c>
    80000340:	ff010113          	addi	sp,sp,-16
    80000344:	08700613          	li	a2,135
    80000348:	00000597          	auipc	a1,0x0
    8000034c:	4a858593          	addi	a1,a1,1192 # 800007f0 <_etext+0x7c>
    80000350:	00000517          	auipc	a0,0x0
    80000354:	4e850513          	addi	a0,a0,1256 # 80000838 <_etext+0xc4>
    80000358:	00113423          	sd	ra,8(sp)
    8000035c:	378000ef          	jal	ra,800006d4 <printf>
    80000360:	00100513          	li	a0,1
    80000364:	dd5ff0ef          	jal	ra,80000138 <halt>

0000000080000368 <uint2str_hex>:
    80000368:	f9010113          	addi	sp,sp,-112
    8000036c:	00810693          	addi	a3,sp,8
    80000370:	00000713          	li	a4,0
    80000374:	00000e17          	auipc	t3,0x0
    80000378:	4e4e0e13          	addi	t3,t3,1252 # 80000858 <str_hex>
    8000037c:	00f00313          	li	t1,15
    80000380:	00f57793          	andi	a5,a0,15
    80000384:	00fe07b3          	add	a5,t3,a5
    80000388:	0007c803          	lbu	a6,0(a5)
    8000038c:	0005079b          	sext.w	a5,a0
    80000390:	00070893          	mv	a7,a4
    80000394:	01068023          	sb	a6,0(a3)
    80000398:	0045551b          	srliw	a0,a0,0x4
    8000039c:	0017071b          	addiw	a4,a4,1
    800003a0:	00168693          	addi	a3,a3,1
    800003a4:	fcf36ee3          	bltu	t1,a5,80000380 <uint2str_hex+0x18>
    800003a8:	07070693          	addi	a3,a4,112
    800003ac:	002686b3          	add	a3,a3,sp
    800003b0:	fff70793          	addi	a5,a4,-1
    800003b4:	00158813          	addi	a6,a1,1
    800003b8:	f8068c23          	sb	zero,-104(a3)
    800003bc:	00810693          	addi	a3,sp,8
    800003c0:	00f686b3          	add	a3,a3,a5
    800003c4:	01180833          	add	a6,a6,a7
    800003c8:	00058793          	mv	a5,a1
    800003cc:	0006c503          	lbu	a0,0(a3)
    800003d0:	00178793          	addi	a5,a5,1
    800003d4:	fff68693          	addi	a3,a3,-1
    800003d8:	fea78fa3          	sb	a0,-1(a5)
    800003dc:	ff0798e3          	bne	a5,a6,800003cc <uint2str_hex+0x64>
    800003e0:	00e585b3          	add	a1,a1,a4
    800003e4:	00058023          	sb	zero,0(a1)
    800003e8:	00062783          	lw	a5,0(a2)
    800003ec:	00e787bb          	addw	a5,a5,a4
    800003f0:	00f62023          	sw	a5,0(a2)
    800003f4:	07010113          	addi	sp,sp,112
    800003f8:	00008067          	ret

00000000800003fc <int2str>:
    800003fc:	f9010113          	addi	sp,sp,-112
    80000400:	02055063          	bgez	a0,80000420 <int2str+0x24>
    80000404:	02d00793          	li	a5,45
    80000408:	00f58023          	sb	a5,0(a1)
    8000040c:	00062783          	lw	a5,0(a2)
    80000410:	40a0053b          	negw	a0,a0
    80000414:	00158593          	addi	a1,a1,1
    80000418:	0017879b          	addiw	a5,a5,1
    8000041c:	00f62023          	sw	a5,0(a2)
    80000420:	00810693          	addi	a3,sp,8
    80000424:	00000713          	li	a4,0
    80000428:	00a00813          	li	a6,10
    8000042c:	030567bb          	remw	a5,a0,a6
    80000430:	00168693          	addi	a3,a3,1
    80000434:	00070893          	mv	a7,a4
    80000438:	0017071b          	addiw	a4,a4,1
    8000043c:	0305453b          	divw	a0,a0,a6
    80000440:	0307879b          	addiw	a5,a5,48
    80000444:	fef68fa3          	sb	a5,-1(a3)
    80000448:	fe0512e3          	bnez	a0,8000042c <int2str+0x30>
    8000044c:	07070693          	addi	a3,a4,112
    80000450:	002686b3          	add	a3,a3,sp
    80000454:	fff70793          	addi	a5,a4,-1
    80000458:	00158813          	addi	a6,a1,1
    8000045c:	f8068c23          	sb	zero,-104(a3)
    80000460:	00810693          	addi	a3,sp,8
    80000464:	00f686b3          	add	a3,a3,a5
    80000468:	01180833          	add	a6,a6,a7
    8000046c:	00058793          	mv	a5,a1
    80000470:	0006c503          	lbu	a0,0(a3)
    80000474:	00178793          	addi	a5,a5,1
    80000478:	fff68693          	addi	a3,a3,-1
    8000047c:	fea78fa3          	sb	a0,-1(a5)
    80000480:	fef818e3          	bne	a6,a5,80000470 <int2str+0x74>
    80000484:	00e585b3          	add	a1,a1,a4
    80000488:	00058023          	sb	zero,0(a1)
    8000048c:	00062783          	lw	a5,0(a2)
    80000490:	00e787bb          	addw	a5,a5,a4
    80000494:	00f62023          	sw	a5,0(a2)
    80000498:	07010113          	addi	sp,sp,112
    8000049c:	00008067          	ret

00000000800004a0 <my_format>:
    800004a0:	f9010113          	addi	sp,sp,-112
    800004a4:	03513c23          	sd	s5,56(sp)
    800004a8:	06113423          	sd	ra,104(sp)
    800004ac:	06813023          	sd	s0,96(sp)
    800004b0:	04913c23          	sd	s1,88(sp)
    800004b4:	05213823          	sd	s2,80(sp)
    800004b8:	05313423          	sd	s3,72(sp)
    800004bc:	05413023          	sd	s4,64(sp)
    800004c0:	03613823          	sd	s6,48(sp)
    800004c4:	03713423          	sd	s7,40(sp)
    800004c8:	03813023          	sd	s8,32(sp)
    800004cc:	01913c23          	sd	s9,24(sp)
    800004d0:	01a13823          	sd	s10,16(sp)
    800004d4:	fffff2b7          	lui	t0,0xfffff
    800004d8:	0005c783          	lbu	a5,0(a1)
    800004dc:	00510133          	add	sp,sp,t0
    800004e0:	00012623          	sw	zero,12(sp)
    800004e4:	00050a93          	mv	s5,a0
    800004e8:	06078463          	beqz	a5,80000550 <my_format+0xb0>
    800004ec:	fffffd37          	lui	s10,0xfffff
    800004f0:	00060693          	mv	a3,a2
    800004f4:	00001637          	lui	a2,0x1
    800004f8:	ffcd0d13          	addi	s10,s10,-4 # ffffffffffffeffc <_end+0xffffffff7fff5ffc>
    800004fc:	01060613          	addi	a2,a2,16 # 1010 <_entry_offset+0x1010>
    80000500:	01a60633          	add	a2,a2,s10
    80000504:	00058993          	mv	s3,a1
    80000508:	00000493          	li	s1,0
    8000050c:	00000413          	li	s0,0
    80000510:	00000713          	li	a4,0
    80000514:	02500b13          	li	s6,37
    80000518:	07300b93          	li	s7,115
    8000051c:	07800c93          	li	s9,120
    80000520:	00260d33          	add	s10,a2,sp
    80000524:	06400c13          	li	s8,100
    80000528:	07678663          	beq	a5,s6,80000594 <my_format+0xf4>
    8000052c:	009a8733          	add	a4,s5,s1
    80000530:	00f70023          	sb	a5,0(a4)
    80000534:	0014849b          	addiw	s1,s1,1
    80000538:	0014041b          	addiw	s0,s0,1
    8000053c:	008987b3          	add	a5,s3,s0
    80000540:	0007c783          	lbu	a5,0(a5)
    80000544:	00040713          	mv	a4,s0
    80000548:	fe0790e3          	bnez	a5,80000528 <my_format+0x88>
    8000054c:	009a8ab3          	add	s5,s5,s1
    80000550:	000a8023          	sb	zero,0(s5)
    80000554:	000012b7          	lui	t0,0x1
    80000558:	00510133          	add	sp,sp,t0
    8000055c:	06813083          	ld	ra,104(sp)
    80000560:	06013403          	ld	s0,96(sp)
    80000564:	05813483          	ld	s1,88(sp)
    80000568:	05013903          	ld	s2,80(sp)
    8000056c:	04813983          	ld	s3,72(sp)
    80000570:	04013a03          	ld	s4,64(sp)
    80000574:	03813a83          	ld	s5,56(sp)
    80000578:	03013b03          	ld	s6,48(sp)
    8000057c:	02813b83          	ld	s7,40(sp)
    80000580:	02013c03          	ld	s8,32(sp)
    80000584:	01813c83          	ld	s9,24(sp)
    80000588:	01013d03          	ld	s10,16(sp)
    8000058c:	07010113          	addi	sp,sp,112
    80000590:	00008067          	ret
    80000594:	00e98733          	add	a4,s3,a4
    80000598:	00174783          	lbu	a5,1(a4)
    8000059c:	0d778a63          	beq	a5,s7,80000670 <my_format+0x1d0>
    800005a0:	06fbe663          	bltu	s7,a5,8000060c <my_format+0x16c>
    800005a4:	fa0788e3          	beqz	a5,80000554 <my_format+0xb4>
    800005a8:	13879263          	bne	a5,s8,800006cc <my_format+0x22c>
    800005ac:	0006a503          	lw	a0,0(a3)
    800005b0:	01010593          	addi	a1,sp,16
    800005b4:	000d0613          	mv	a2,s10
    800005b8:	00868913          	addi	s2,a3,8
    800005bc:	00012623          	sw	zero,12(sp)
    800005c0:	e3dff0ef          	jal	ra,800003fc <int2str>
    800005c4:	00c12583          	lw	a1,12(sp)
    800005c8:	02b05a63          	blez	a1,800005fc <my_format+0x15c>
    800005cc:	fff5861b          	addiw	a2,a1,-1
    800005d0:	02061613          	slli	a2,a2,0x20
    800005d4:	01010793          	addi	a5,sp,16
    800005d8:	02065613          	srli	a2,a2,0x20
    800005dc:	00178693          	addi	a3,a5,1
    800005e0:	009a8733          	add	a4,s5,s1
    800005e4:	00d60633          	add	a2,a2,a3
    800005e8:	0007c683          	lbu	a3,0(a5)
    800005ec:	00178793          	addi	a5,a5,1
    800005f0:	00170713          	addi	a4,a4,1
    800005f4:	fed70fa3          	sb	a3,-1(a4)
    800005f8:	fec798e3          	bne	a5,a2,800005e8 <my_format+0x148>
    800005fc:	009584bb          	addw	s1,a1,s1
    80000600:	0024041b          	addiw	s0,s0,2
    80000604:	00090693          	mv	a3,s2
    80000608:	f35ff06f          	j	8000053c <my_format+0x9c>
    8000060c:	0d979063          	bne	a5,s9,800006cc <my_format+0x22c>
    80000610:	0006a503          	lw	a0,0(a3)
    80000614:	01010593          	addi	a1,sp,16
    80000618:	000d0613          	mv	a2,s10
    8000061c:	00868913          	addi	s2,a3,8
    80000620:	00012623          	sw	zero,12(sp)
    80000624:	d45ff0ef          	jal	ra,80000368 <uint2str_hex>
    80000628:	00c12583          	lw	a1,12(sp)
    8000062c:	fcb058e3          	blez	a1,800005fc <my_format+0x15c>
    80000630:	fff5869b          	addiw	a3,a1,-1
    80000634:	02069693          	slli	a3,a3,0x20
    80000638:	01010793          	addi	a5,sp,16
    8000063c:	0206d693          	srli	a3,a3,0x20
    80000640:	00178613          	addi	a2,a5,1
    80000644:	009a8733          	add	a4,s5,s1
    80000648:	00d60633          	add	a2,a2,a3
    8000064c:	0007c683          	lbu	a3,0(a5)
    80000650:	00178793          	addi	a5,a5,1
    80000654:	00170713          	addi	a4,a4,1
    80000658:	fed70fa3          	sb	a3,-1(a4)
    8000065c:	fec798e3          	bne	a5,a2,8000064c <my_format+0x1ac>
    80000660:	009584bb          	addw	s1,a1,s1
    80000664:	0024041b          	addiw	s0,s0,2
    80000668:	00090693          	mv	a3,s2
    8000066c:	ed1ff06f          	j	8000053c <my_format+0x9c>
    80000670:	0006b903          	ld	s2,0(a3)
    80000674:	00868a13          	addi	s4,a3,8
    80000678:	00090513          	mv	a0,s2
    8000067c:	ae9ff0ef          	jal	ra,80000164 <strlen>
    80000680:	0005059b          	sext.w	a1,a0
    80000684:	00b12623          	sw	a1,12(sp)
    80000688:	02b05a63          	blez	a1,800006bc <my_format+0x21c>
    8000068c:	fff5051b          	addiw	a0,a0,-1
    80000690:	02051513          	slli	a0,a0,0x20
    80000694:	00190613          	addi	a2,s2,1
    80000698:	02055513          	srli	a0,a0,0x20
    8000069c:	00090793          	mv	a5,s2
    800006a0:	009a8733          	add	a4,s5,s1
    800006a4:	00a60633          	add	a2,a2,a0
    800006a8:	0007c683          	lbu	a3,0(a5)
    800006ac:	00178793          	addi	a5,a5,1
    800006b0:	00170713          	addi	a4,a4,1
    800006b4:	fed70fa3          	sb	a3,-1(a4)
    800006b8:	fec798e3          	bne	a5,a2,800006a8 <my_format+0x208>
    800006bc:	009584bb          	addw	s1,a1,s1
    800006c0:	0024041b          	addiw	s0,s0,2
    800006c4:	000a0693          	mv	a3,s4
    800006c8:	e75ff06f          	j	8000053c <my_format+0x9c>
    800006cc:	0014041b          	addiw	s0,s0,1
    800006d0:	e6dff06f          	j	8000053c <my_format+0x9c>

00000000800006d4 <printf>:
    800006d4:	f9010113          	addi	sp,sp,-112
    800006d8:	02813023          	sd	s0,32(sp)
    800006dc:	02113423          	sd	ra,40(sp)
    800006e0:	03010413          	addi	s0,sp,48
    800006e4:	00913c23          	sd	s1,24(sp)
    800006e8:	01213823          	sd	s2,16(sp)
    800006ec:	02f43423          	sd	a5,40(s0)
    800006f0:	00b43423          	sd	a1,8(s0)
    800006f4:	fffff7b7          	lui	a5,0xfffff
    800006f8:	00c43823          	sd	a2,16(s0)
    800006fc:	00d43c23          	sd	a3,24(s0)
    80000700:	02e43023          	sd	a4,32(s0)
    80000704:	03043823          	sd	a6,48(s0)
    80000708:	03143c23          	sd	a7,56(s0)
    8000070c:	00f10133          	add	sp,sp,a5
    80000710:	04050e63          	beqz	a0,8000076c <printf+0x98>
    80000714:	00840613          	addi	a2,s0,8
    80000718:	00050593          	mv	a1,a0
    8000071c:	00001937          	lui	s2,0x1
    80000720:	00010513          	mv	a0,sp
    80000724:	fcc43c23          	sd	a2,-40(s0)
    80000728:	00010493          	mv	s1,sp
    8000072c:	d75ff0ef          	jal	ra,800004a0 <my_format>
    80000730:	01210933          	add	s2,sp,s2
    80000734:	00c0006f          	j	80000740 <printf+0x6c>
    80000738:	9f1ff0ef          	jal	ra,80000128 <putch>
    8000073c:	01248863          	beq	s1,s2,8000074c <printf+0x78>
    80000740:	0004c503          	lbu	a0,0(s1)
    80000744:	00148493          	addi	s1,s1,1
    80000748:	fe0518e3          	bnez	a0,80000738 <printf+0x64>
    8000074c:	00000513          	li	a0,0
    80000750:	fd040113          	addi	sp,s0,-48
    80000754:	02813083          	ld	ra,40(sp)
    80000758:	02013403          	ld	s0,32(sp)
    8000075c:	01813483          	ld	s1,24(sp)
    80000760:	01013903          	ld	s2,16(sp)
    80000764:	07010113          	addi	sp,sp,112
    80000768:	00008067          	ret
    8000076c:	fff00513          	li	a0,-1
    80000770:	fe1ff06f          	j	80000750 <printf+0x7c>
